(dp0
I0
I0
sI1
I5
sI2
I0
sI3
I0
sI4
I0
sI5
I0
sI6
I0
sI7
I0
sI8
I5
sI9
I4
sI10
I0
sI11
I0
sI12
I5
sI13
I4
sI14
I4
sI15
I0
sI16
I0
sI17
I0
sI18
I5
sI19
I4
sI20
I4
sI21
I4
sI22
I7
sI23
I0
sI24
I0
sI25
I0
sI26
I5
sI27
I0
sI28
I0
sI29
I0
sI30
I0
sI31
I0
sI32
I0
sI33
I0
sI34
I0
sI35
I7
sI36
I0
sI37
I4
sI38
I4
sI39
I4
sI40
I0
sI41
I0
sI42
I0
sI43
I0
sI44
I0
sI45
I0
sI46
I0
sI47
I0
sI48
I0
sI49
I4
sI50
I0
sI51
I4
sI52
I0
sI53
I0
sI54
I0
sI55
I0
sI56
I0
sI57
I0
sI58
I0
sI59
I0
sI60
I4
sI61
I0
sI62
I4
sI63
I0
sI64
I0
sI65
I4
sI66
I0
sI67
I0
sI68
I0
sI69
I4
sI70
I0
sI71
I0
sI72
I0
sI73
I0
sI74
I0
sI75
I4
sI76
I0
sI77
I0
sI78
I5
sI79
I0
sI80
I0
sI81
I0
sI82
I4
sI83
I1
sI84
I0
sI85
I0
sI86
I0
sI87
I0
sI88
I0
sI89
I0
sI90
I0
sI91
I0
sI92
I0
sI93
I0
sI94
I0
sI95
I4
sI96
I0
sI97
I5
sI98
I4
sI99
I0
sI100
I4
sI101
I0
sI102
I4
sI103
I4
sI104
I4
sI105
I0
sI106
I0
sI107
I4
sI108
I0
sI109
I0
sI110
I0
sI111
I0
sI112
I7
sI113
I0
sI114
I4
sI115
I0
sI116
I0
sI117
I0
sI118
I4
sI119
I0
sI120
I0
sI121
I2
sI122
I0
sI123
I0
sI124
I2
sI125
I0
sI126
I4
sI127
I5
sI128
I4
sI129
I4
sI130
I0
sI131
I4
sI132
I5
sI133
I0
sI134
I0
sI135
I0
sI136
I4
sI137
I4
sI138
I0
sI139
I3
sI140
I5
sI141
I0
sI142
I0
sI143
I7
sI144
I0
sI145
I0
sI146
I4
sI147
I0
sI148
I0
sI149
I0
sI150
I4
sI151
I4
sI152
I0
sI153
I0
sI154
I0
sI155
I0
sI156
I0
sI157
I3
sI158
I0
sI159
I4
sI160
I0
sI161
I7
sI162
I0
sI163
I0
sI164
I4
sI165
I4
sI166
I0
sI167
I0
sI168
I0
sI169
I0
sI170
I0
sI171
I2
sI172
I4
sI173
I4
sI174
I0
sI175
I0
sI176
I0
sI177
I0
sI178
I4
sI179
I4
sI180
I0
sI181
I0
sI182
I2
sI183
I0
sI184
I0
sI185
I2
sI186
I0
sI187
I7
sI188
I0
sI189
I4
sI190
I4
sI191
I0
sI192
I0
sI193
I0
sI194
I4
sI195
I0
sI196
I0
sI197
I5
sI198
I0
sI199
I4
sI200
I0
sI201
I0
sI202
I2
sI203
I4
sI204
I3
sI205
I4
sI206
I0
sI207
I5
sI208
I7
sI209
I0
sI210
I0
sI211
I0
sI212
I7
sI213
I0
sI214
I4
sI215
I0
sI216
I0
sI217
I4
sI218
I0
sI219
I7
sI220
I4
sI221
I2
sI222
I2
sI223
I0
sI224
I4
sI225
I0
sI226
I4
sI227
I3
sI228
I0
sI229
I0
sI230
I0
sI231
I0
sI232
I4
sI233
I0
sI234
I0
sI235
I4
sI236
I5
sI237
I0
sI238
I0
sI239
I0
sI240
I0
sI241
I7
sI242
I7
sI243
I4
sI244
I0
sI245
I4
sI246
I0
sI247
I0
sI248
I3
sI249
I0
sI250
I0
sI251
I2
sI252
I7
sI253
I0
sI254
I0
sI255
I0
sI256
I3
sI257
I4
sI258
I0
sI259
I0
sI260
I3
sI261
I4
sI262
I0
sI263
I0
sI264
I3
sI265
I0
sI266
I0
sI267
I0
sI268
I0
sI269
I0
sI270
I0
sI271
I7
sI272
I0
sI273
I2
sI274
I4
sI275
I0
sI276
I0
sI277
I0
sI278
I0
sI279
I0
sI280
I4
sI281
I7
sI282
I0
sI283
I5
sI284
I4
sI285
I0
sI286
I0
sI287
I0
sI288
I4
sI289
I0
sI290
I0
sI291
I0
sI292
I0
sI293
I0
sI294
I0
sI295
I0
sI296
I2
sI297
I0
sI298
I0
sI299
I0
sI300
I0
sI301
I4
sI302
I0
sI303
I0
sI304
I0
sI305
I0
sI306
I0
sI307
I0
sI308
I0
sI309
I4
sI310
I0
sI311
I0
sI312
I3
sI313
I0
sI314
I0
sI315
I4
sI316
I0
sI317
I4
sI318
I5
sI319
I0
sI320
I2
sI321
I0
sI322
I0
sI323
I4
sI324
I5
sI325
I0
sI326
I0
sI327
I2
sI328
I4
sI329
I0
sI330
I0
sI331
I0
sI332
I0
sI333
I0
sI334
I3
sI335
I0
sI336
I4
sI337
I0
sI338
I0
sI339
I0
sI340
I3
sI341
I0
sI342
I0
sI343
I0
sI344
I3
sI345
I7
sI346
I5
sI347
I0
sI348
I0
sI349
I0
sI350
I2
sI351
I4
sI352
I0
sI353
I4
sI354
I0
sI355
I0
sI356
I1
sI357
I1
sI358
I0
sI359
I0
sI360
I4
sI361
I0
sI362
I0
sI363
I4
sI364
I0
sI365
I4
sI366
I3
sI367
I4
sI368
I4
sI369
I0
sI370
I3
sI371
I4
sI372
I4
sI373
I0
sI374
I0
sI375
I0
sI376
I4
sI377
I7
sI378
I0
sI379
I0
sI380
I0
sI381
I4
sI382
I0
sI383
I0
sI384
I0
sI385
I0
sI386
I0
sI387
I4
sI388
I0
sI389
I0
sI390
I4
sI391
I7
sI392
I0
sI393
I2
sI394
I7
sI395
I0
sI396
I4
sI397
I0
sI398
I0
sI399
I0
sI400
I0
sI401
I0
sI402
I5
sI403
I4
sI404
I4
sI405
I4
sI406
I3
sI407
I0
sI408
I1
sI409
I0
sI410
I0
sI411
I0
sI412
I0
sI413
I0
sI414
I0
sI415
I5
sI416
I2
sI417
I0
sI418
I2
sI419
I0
sI420
I0
sI421
I4
sI422
I4
sI423
I0
sI424
I3
sI425
I3
sI426
I0
sI427
I5
sI428
I7
sI429
I0
sI430
I0
sI431
I0
sI432
I4
sI433
I0
sI434
I5
sI435
I2
sI436
I0
sI437
I0
sI438
I5
sI439
I0
sI440
I4
sI441
I0
sI442
I2
sI443
I4
sI444
I0
sI445
I3
sI446
I0
sI447
I0
sI448
I0
sI449
I0
sI450
I4
sI451
I0
sI452
I3
sI453
I0
sI454
I5
sI455
I0
sI456
I3
sI457
I7
sI458
I3
sI459
I5
sI460
I4
sI461
I0
sI462
I5
sI463
I0
sI464
I0
sI465
I5
sI466
I0
sI467
I0
sI468
I0
sI469
I4
sI470
I4
sI471
I4
sI472
I0
sI473
I0
sI474
I4
sI475
I4
sI476
I7
sI477
I2
sI478
I7
sI479
I0
sI480
I0
sI481
I4
sI482
I4
sI483
I0
sI484
I0
sI485
I3
sI486
I0
sI487
I4
sI488
I0
sI489
I0
sI490
I0
sI491
I0
sI492
I4
sI493
I0
sI494
I4
sI495
I0
sI496
I0
sI497
I0
sI498
I7
sI499
I0
sI500
I0
sI501
I0
sI502
I7
sI503
I0
sI504
I0
sI505
I3
sI506
I0
sI507
I4
sI508
I0
sI509
I0
sI510
I4
sI511
I0
sI512
I0
sI513
I2
sI514
I1
sI515
I0
sI516
I4
sI517
I4
sI518
I0
sI519
I0
sI520
I2
sI521
I0
sI522
I0
sI523
I0
sI524
I0
sI525
I0
sI526
I0
sI527
I4
sI528
I0
sI529
I7
sI530
I0
sI531
I0
sI532
I3
sI533
I3
sI534
I7
sI535
I0
sI536
I2
sI537
I0
sI538
I0
sI539
I0
sI540
I4
sI541
I1
sI542
I2
sI543
I7
sI544
I7
sI545
I4
sI546
I4
sI547
I0
sI548
I0
sI549
I0
sI550
I0
sI551
I5
sI552
I0
sI553
I2
sI554
I6
sI555
I4
sI556
I3
sI557
I4
sI558
I0
sI559
I4
sI560
I0
sI561
I0
sI562
I0
sI563
I0
sI564
I0
sI565
I0
sI566
I3
sI567
I3
sI568
I0
sI569
I0
sI570
I0
sI571
I0
sI572
I0
sI573
I0
sI574
I0
sI575
I4
sI576
I2
sI577
I0
sI578
I7
sI579
I0
sI580
I3
sI581
I1
sI582
I3
sI583
I0
sI584
I0
sI585
I2
sI586
I0
sI587
I0
sI588
I0
sI589
I5
sI590
I0
sI591
I3
sI592
I4
sI593
I0
sI594
I3
sI595
I0
sI596
I0
sI597
I0
sI598
I0
sI599
I0
sI600
I0
sI601
I5
sI602
I0
sI603
I0
sI604
I0
sI605
I2
sI606
I0
sI607
I0
sI608
I0
sI609
I0
sI610
I0
sI611
I1
sI612
I4
sI613
I0
sI614
I0
sI615
I0
sI616
I0
sI617
I0
sI618
I4
sI619
I3
sI620
I0
sI621
I0
sI622
I4
sI623
I0
sI624
I0
sI625
I4
sI626
I3
sI627
I4
sI628
I0
sI629
I0
sI630
I0
sI631
I0
sI632
I0
sI633
I4
sI634
I3
sI635
I2
sI636
I4
sI637
I0
sI638
I4
sI639
I0
sI640
I0
sI641
I0
sI642
I0
sI643
I0
sI644
I0
sI645
I1
sI646
I4
sI647
I3
sI648
I4
sI649
I5
sI650
I4
sI651
I2
sI652
I2
sI653
I0
sI654
I0
sI655
I0
sI656
I0
sI657
I0
sI658
I0
sI659
I4
sI660
I0
sI661
I3
sI662
I0
sI663
I0
sI664
I0
sI665
I0
sI666
I7
sI667
I0
sI668
I2
sI669
I3
sI670
I0
sI671
I0
sI672
I0
sI673
I0
sI674
I0
sI675
I0
sI676
I4
sI677
I0
sI678
I0
sI679
I3
sI680
I0
sI681
I0
sI682
I0
sI683
I3
sI684
I2
sI685
I4
sI686
I0
sI687
I2
sI688
I0
sI689
I4
sI690
I0
sI691
I0
sI692
I4
sI693
I4
sI694
I0
sI695
I3
sI696
I4
sI697
I4
sI698
I0
sI699
I0
sI700
I0
sI701
I0
sI702
I0
sI703
I0
sI704
I0
sI705
I0
sI706
I4
sI707
I0
sI708
I4
sI709
I0
sI710
I0
sI711
I0
sI712
I0
sI713
I0
sI714
I0
sI715
I0
sI716
I4
sI717
I0
sI718
I2
sI719
I4
sI720
I4
sI721
I0
sI722
I7
sI723
I0
sI724
I0
sI725
I4
sI726
I0
sI727
I3
sI728
I0
sI729
I0
sI730
I0
sI731
I0
sI732
I0
sI733
I0
sI734
I0
sI735
I4
sI736
I1
sI737
I2
sI738
I1
sI739
I0
sI740
I4
sI741
I5
sI742
I5
sI743
I0
sI744
I3
sI745
I0
sI746
I0
sI747
I4
sI748
I0
sI749
I0
sI750
I0
sI751
I2
sI752
I2
sI753
I1
sI754
I0
sI755
I0
sI756
I0
sI757
I0
sI758
I0
sI759
I0
sI760
I0
sI761
I2
sI762
I0
sI763
I0
sI764
I0
sI765
I4
sI766
I4
sI767
I0
sI768
I0
sI769
I0
sI770
I0
sI771
I3
sI772
I0
sI773
I0
sI774
I1
sI775
I2
sI776
I0
sI777
I0
sI778
I3
sI779
I0
sI780
I3
sI781
I4
sI782
I2
sI783
I7
sI784
I0
sI785
I3
sI786
I0
sI787
I4
sI788
I4
sI789
I0
sI790
I0
sI791
I0
sI792
I0
sI793
I4
sI794
I0
sI795
I4
sI796
I0
sI797
I0
sI798
I2
sI799
I0
sI800
I3
sI801
I4
sI802
I0
sI803
I0
sI804
I0
sI805
I0
sI806
I0
sI807
I0
sI808
I3
sI809
I0
sI810
I7
sI811
I0
sI812
I0
sI813
I2
sI814
I0
sI815
I5
sI816
I4
sI817
I4
sI818
I0
sI819
I2
sI820
I2
sI821
I4
sI822
I0
sI823
I4
sI824
I0
sI825
I0
sI826
I0
sI827
I0
sI828
I0
sI829
I0
sI830
I3
sI831
I0
sI832
I0
sI833
I0
sI834
I0
sI835
I4
sI836
I0
sI837
I5
sI838
I5
sI839
I6
sI840
I4
sI841
I0
sI842
I0
sI843
I0
sI844
I0
sI845
I0
sI846
I0
sI847
I0
sI848
I0
sI849
I0
sI850
I0
sI851
I0
sI852
I0
sI853
I0
sI854
I3
sI855
I1
sI856
I2
sI857
I3
sI858
I7
sI859
I4
sI860
I4
sI861
I5
sI862
I5
sI863
I0
sI864
I0
sI865
I0
sI866
I5
sI867
I0
sI868
I0
sI869
I0
sI870
I0
sI871
I4
sI872
I0
sI873
I0
sI874
I0
sI875
I0
sI876
I0
sI877
I4
sI878
I2
sI879
I2
sI880
I3
sI881
I0
sI882
I2
sI883
I6
sI884
I3
sI885
I0
sI886
I0
sI887
I0
sI888
I4
sI889
I0
sI890
I0
sI891
I3
sI892
I0
sI893
I0
sI894
I5
sI895
I0
sI896
I0
sI897
I0
sI898
I0
sI899
I0
sI900
I0
sI901
I0
sI902
I6
sI903
I7
sI904
I5
sI905
I0
sI906
I0
sI907
I2
sI908
I2
sI909
I2
sI910
I3
sI911
I4
sI912
I4
sI913
I4
sI914
I0
sI915
I0
sI916
I4
sI917
I7
sI918
I0
sI919
I3
sI920
I0
sI921
I2
sI922
I1
sI923
I0
sI924
I4
sI925
I0
sI926
I0
sI927
I4
sI928
I4
sI929
I0
sI930
I3
sI931
I3
sI932
I3
sI933
I2
sI934
I5
sI935
I0
sI936
I2
sI937
I4
sI938
I0
sI939
I5
sI940
I3
sI941
I0
sI942
I0
sI943
I4
sI944
I0
sI945
I5
sI946
I0
sI947
I4
sI948
I4
sI949
I7
sI950
I0
sI951
I4
sI952
I0
sI953
I4
sI954
I0
sI955
I0
sI956
I4
sI957
I0
sI958
I4
sI959
I0
sI960
I0
sI961
I7
sI962
I1
sI963
I0
sI964
I2
sI965
I3
sI966
I0
sI967
I0
sI968
I2
sI969
I0
sI970
I2
sI971
I3
sI972
I0
sI973
I0
sI974
I0
sI975
I0
sI976
I0
sI977
I0
sI978
I5
sI979
I0
sI980
I0
sI981
I0
sI982
I3
sI983
I5
sI984
I0
sI985
I0
sI986
I0
sI987
I1
sI988
I0
sI989
I7
sI990
I4
sI991
I3
sI992
I2
sI993
I7
sI994
I2
sI995
I0
sI996
I0
sI997
I0
sI998
I3
sI999
I4
sI1000
I0
sI1001
I0
sI1002
I0
sI1003
I0
sI1004
I3
sI1005
I1
sI1006
I0
sI1007
I0
sI1008
I0
sI1009
I0
sI1010
I4
sI1011
I0
sI1012
I2
sI1013
I4
sI1014
I0
sI1015
I3
sI1016
I0
sI1017
I0
sI1018
I4
sI1019
I0
sI1020
I6
sI1021
I0
sI1022
I0
sI1023
I3
sI1024
I3
sI1025
I0
sI1026
I4
sI1027
I1
sI1028
I0
sI1029
I4
sI1030
I0
sI1031
I3
sI1032
I3
sI1033
I0
sI1034
I0
sI1035
I0
sI1036
I0
sI1037
I3
sI1038
I0
sI1039
I0
sI1040
I0
sI1041
I2
sI1042
I1
sI1043
I0
sI1044
I0
sI1045
I4
sI1046
I4
sI1047
I5
sI1048
I5
sI1049
I4
sI1050
I0
sI1051
I0
sI1052
I0
sI1053
I0
sI1054
I0
sI1055
I0
sI1056
I2
sI1057
I4
sI1058
I0
sI1059
I0
sI1060
I6
sI1061
I0
sI1062
I3
sI1063
I3
sI1064
I6
sI1065
I4
sI1066
I0
sI1067
I4
sI1068
I0
sI1069
I1
sI1070
I1
sI1071
I0
sI1072
I4
sI1073
I5
sI1074
I0
sI1075
I0
sI1076
I0
sI1077
I0
sI1078
I4
sI1079
I0
sI1080
I0
sI1081
I3
sI1082
I0
sI1083
I4
sI1084
I0
sI1085
I5
sI1086
I0
sI1087
I0
sI1088
I0
sI1089
I0
sI1090
I0
sI1091
I2
sI1092
I3
sI1093
I5
sI1094
I2
sI1095
I3
sI1096
I6
sI1097
I0
sI1098
I4
sI1099
I0
sI1100
I1
sI1101
I4
sI1102
I4
sI1103
I2
sI1104
I3
sI1105
I0
sI1106
I0
sI1107
I0
sI1108
I0
sI1109
I0
sI1110
I4
sI1111
I4
sI1112
I0
sI1113
I0
sI1114
I0
sI1115
I0
sI1116
I0
sI1117
I0
sI1118
I0
sI1119
I0
sI1120
I4
sI1121
I0
sI1122
I0
sI1123
I0
sI1124
I0
sI1125
I4
sI1126
I0
sI1127
I0
sI1128
I4
sI1129
I0
sI1130
I0
sI1131
I3
sI1132
I1
sI1133
I2
sI1134
I2
sI1135
I3
sI1136
I6
sI1137
I0
sI1138
I6
sI1139
I6
sI1140
I5
sI1141
I0
sI1142
I4
sI1143
I7
sI1144
I2
sI1145
I1
sI1146
I0
sI1147
I4
sI1148
I0
sI1149
I5
sI1150
I3
sI1151
I0
sI1152
I0
sI1153
I0
sI1154
I4
sI1155
I4
sI1156
I4
sI1157
I4
sI1158
I0
sI1159
I4
sI1160
I0
sI1161
I0
sI1162
I0
sI1163
I0
sI1164
I0
sI1165
I0
sI1166
I0
sI1167
I0
sI1168
I0
sI1169
I0
sI1170
I0
sI1171
I4
sI1172
I2
sI1173
I6
sI1174
I1
sI1175
I2
sI1176
I0
sI1177
I2
sI1178
I0
sI1179
I4
sI1180
I0
sI1181
I0
sI1182
I0
sI1183
I0
sI1184
I0
sI1185
I0
sI1186
I0
sI1187
I0
sI1188
I0
sI1189
I0
sI1190
I0
sI1191
I0
sI1192
I4
sI1193
I0
sI1194
I0
sI1195
I4
sI1196
I0
sI1197
I0
sI1198
I0
sI1199
I3
sI1200
I0
sI1201
I4
sI1202
I7
sI1203
I4
sI1204
I2
sI1205
I3
sI1206
I1
sI1207
I2
sI1208
I0
sI1209
I4
sI1210
I0
sI1211
I0
sI1212
I3
sI1213
I2
sI1214
I5
sI1215
I0
sI1216
I4
sI1217
I0
sI1218
I0
sI1219
I1
sI1220
I3
sI1221
I7
sI1222
I0
sI1223
I1
sI1224
I0
sI1225
I0
sI1226
I4
sI1227
I0
sI1228
I0
sI1229
I3
sI1230
I0
sI1231
I0
sI1232
I0
sI1233
I1
sI1234
I0
sI1235
I4
sI1236
I0
sI1237
I3
sI1238
I4
sI1239
I0
sI1240
I2
sI1241
I2
sI1242
I0
sI1243
I0
sI1244
I0
sI1245
I4
sI1246
I0
sI1247
I0
sI1248
I6
sI1249
I4
sI1250
I2
sI1251
I0
sI1252
I3
sI1253
I2
sI1254
I2
sI1255
I0
sI1256
I4
sI1257
I4
sI1258
I4
sI1259
I0
sI1260
I3
sI1261
I1
sI1262
I0
sI1263
I2
sI1264
I2
sI1265
I4
sI1266
I4
sI1267
I0
sI1268
I0
sI1269
I4
sI1270
I4
sI1271
I4
sI1272
I0
sI1273
I0
sI1274
I0
sI1275
I4
sI1276
I0
sI1277
I0
sI1278
I4
sI1279
I4
sI1280
I0
sI1281
I3
sI1282
I0
sI1283
I2
sI1284
I3
sI1285
I2
sI1286
I6
sI1287
I1
sI1288
I3
sI1289
I4
sI1290
I1
sI1291
I7
sI1292
I4
sI1293
I0
sI1294
I0
sI1295
I2
sI1296
I0
sI1297
I5
sI1298
I7
sI1299
I0
sI1300
I0
sI1301
I0
sI1302
I0
sI1303
I0
sI1304
I0
sI1305
I0
sI1306
I4
sI1307
I0
sI1308
I0
sI1309
I0
sI1310
I0
sI1311
I5
sI1312
I3
sI1313
I0
sI1314
I0
sI1315
I3
sI1316
I0
sI1317
I0
sI1318
I4
sI1319
I5
sI1320
I4
sI1321
I3
sI1322
I7
sI1323
I0
sI1324
I2
sI1325
I0
sI1326
I1
sI1327
I1
sI1328
I1
sI1329
I0
sI1330
I3
sI1331
I0
sI1332
I4
sI1333
I7
sI1334
I4
sI1335
I0
sI1336
I4
sI1337
I0
sI1338
I0
sI1339
I3
sI1340
I0
sI1341
I2
sI1342
I2
sI1343
I3
sI1344
I0
sI1345
I0
sI1346
I4
sI1347
I0
sI1348
I3
sI1349
I0
sI1350
I0
sI1351
I0
sI1352
I3
sI1353
I0
sI1354
I0
sI1355
I0
sI1356
I0
sI1357
I0
sI1358
I0
sI1359
I0
sI1360
I0
sI1361
I0
sI1362
I0
sI1363
I0
sI1364
I4
sI1365
I0
sI1366
I0
sI1367
I3
sI1368
I4
sI1369
I3
sI1370
I0
sI1371
I0
sI1372
I0
sI1373
I3
sI1374
I0
sI1375
I0
sI1376
I0
sI1377
I0
sI1378
I3
sI1379
I6
sI1380
I3
sI1381
I7
sI1382
I4
sI1383
I2
sI1384
I4
sI1385
I0
sI1386
I3
sI1387
I5
sI1388
I0
sI1389
I3
sI1390
I7
sI1391
I3
sI1392
I0
sI1393
I0
sI1394
I4
sI1395
I1
sI1396
I0
sI1397
I3
sI1398
I4
sI1399
I4
sI1400
I2
sI1401
I0
sI1402
I0
sI1403
I0
sI1404
I3
sI1405
I0
sI1406
I2
sI1407
I0
sI1408
I0
sI1409
I0
sI1410
I0
sI1411
I0
sI1412
I0
sI1413
I0
sI1414
I5
sI1415
I2
sI1416
I0
sI1417
I0
sI1418
I0
sI1419
I4
sI1420
I4
sI1421
I0
sI1422
I0
sI1423
I0
sI1424
I4
sI1425
I0
sI1426
I0
sI1427
I0
sI1428
I0
sI1429
I4
sI1430
I0
sI1431
I0
sI1432
I0
sI1433
I0
sI1434
I0
sI1435
I3
sI1436
I0
sI1437
I0
sI1438
I0
sI1439
I4
sI1440
I3
sI1441
I5
sI1442
I3
sI1443
I3
sI1444
I0
sI1445
I3
sI1446
I2
sI1447
I3
sI1448
I0
sI1449
I7
sI1450
I0
sI1451
I4
sI1452
I4
sI1453
I4
sI1454
I0
sI1455
I2
sI1456
I3
sI1457
I1
sI1458
I0
sI1459
I4
sI1460
I0
sI1461
I3
sI1462
I3
sI1463
I4
sI1464
I1
sI1465
I0
sI1466
I2
sI1467
I3
sI1468
I0
sI1469
I7
sI1470
I4
sI1471
I0
sI1472
I0
sI1473
I0
sI1474
I0
sI1475
I0
sI1476
I3
sI1477
I0
sI1478
I0
sI1479
I0
sI1480
I4
sI1481
I4
sI1482
I0
sI1483
I0
sI1484
I0
sI1485
I0
sI1486
I0
sI1487
I0
sI1488
I3
sI1489
I2
sI1490
I4
sI1491
I5
sI1492
I0
sI1493
I4
sI1494
I0
sI1495
I2
sI1496
I1
sI1497
I2
sI1498
I3
sI1499
I4
sI1500
I2
sI1501
I4
sI1502
I4
sI1503
I7
sI1504
I7
sI1505
I3
sI1506
I2
sI1507
I5
sI1508
I4
sI1509
I4
sI1510
I0
sI1511
I0
sI1512
I3
sI1513
I0
sI1514
I4
sI1515
I0
sI1516
I0
sI1517
I0
sI1518
I1
sI1519
I2
sI1520
I0
sI1521
I0
sI1522
I0
sI1523
I0
sI1524
I0
sI1525
I0
sI1526
I0
sI1527
I4
sI1528
I0
sI1529
I4
sI1530
I3
sI1531
I0
sI1532
I0
sI1533
I0
sI1534
I0
sI1535
I0
sI1536
I4
sI1537
I0
sI1538
I0
sI1539
I0
sI1540
I0
sI1541
I0
sI1542
I0
sI1543
I0
sI1544
I0
sI1545
I0
sI1546
I0
sI1547
I0
sI1548
I3
sI1549
I3
sI1550
I3
sI1551
I1
sI1552
I2
sI1553
I0
sI1554
I3
sI1555
I2
sI1556
I1
sI1557
I5
sI1558
I7
sI1559
I5
sI1560
I0
sI1561
I3
sI1562
I0
sI1563
I3
sI1564
I3
sI1565
I4
sI1566
I3
sI1567
I2
sI1568
I0
sI1569
I0
sI1570
I3
sI1571
I3
sI1572
I3
sI1573
I4
sI1574
I0
sI1575
I4
sI1576
I3
sI1577
I0
sI1578
I5
sI1579
I2
sI1580
I0
sI1581
I0
sI1582
I0
sI1583
I0
sI1584
I3
sI1585
I4
sI1586
I4
sI1587
I4
sI1588
I4
sI1589
I0
sI1590
I0
sI1591
I5
sI1592
I0
sI1593
I4
sI1594
I0
sI1595
I0
sI1596
I3
sI1597
I4
sI1598
I0
sI1599
I2
sI1600
I4
sI1601
I0
sI1602
I0
sI1603
I0
sI1604
I4
sI1605
I4
sI1606
I0
sI1607
I0
sI1608
I0
sI1609
I0
sI1610
I0
sI1611
I0
sI1612
I4
sI1613
I2
sI1614
I1
sI1615
I1
sI1616
I8
sI1617
I0
sI1618
I0
sI1619
I1
sI1620
I1
sI1621
I3
sI1622
I7
sI1623
I3
sI1624
I0
sI1625
I0
sI1626
I3
sI1627
I0
sI1628
I3
sI1629
I7
sI1630
I0
sI1631
I1
sI1632
I3
sI1633
I0
sI1634
I2
sI1635
I3
sI1636
I2
sI1637
I4
sI1638
I0
sI1639
I3
sI1640
I0
sI1641
I4
sI1642
I1
sI1643
I3
sI1644
I0
sI1645
I0
sI1646
I0
sI1647
I0
sI1648
I0
sI1649
I0
sI1650
I0
sI1651
I0
sI1652
I0
sI1653
I0
sI1654
I0
sI1655
I0
sI1656
I0
sI1657
I0
sI1658
I0
sI1659
I0
sI1660
I0
sI1661
I0
sI1662
I0
sI1663
I0
sI1664
I0
sI1665
I4
sI1666
I4
sI1667
I0
sI1668
I0
sI1669
I0
sI1670
I1
sI1671
I3
sI1672
I4
sI1673
I0
sI1674
I0
sI1675
I0
sI1676
I3
sI1677
I0
sI1678
I0
sI1679
I0
sI1680
I2
sI1681
I4
sI1682
I0
sI1683
I4
sI1684
I7
sI1685
I0
sI1686
I0
sI1687
I4
sI1688
I1
sI1689
I0
sI1690
I6
sI1691
I0
sI1692
I1
sI1693
I7
sI1694
I3
sI1695
I2
sI1696
I2
sI1697
I5
sI1698
I1
sI1699
I5
sI1700
I1
sI1701
I2
sI1702
I0
sI1703
I7
sI1704
I0
sI1705
I2
sI1706
I0
sI1707
I4
sI1708
I3
sI1709
I0
sI1710
I0
sI1711
I0
sI1712
I0
sI1713
I4
sI1714
I2
sI1715
I0
sI1716
I4
sI1717
I0
sI1718
I0
sI1719
I0
sI1720
I0
sI1721
I0
sI1722
I0
sI1723
I4
sI1724
I4
sI1725
I4
sI1726
I0
sI1727
I4
sI1728
I0
sI1729
I3
sI1730
I0
sI1731
I0
sI1732
I4
sI1733
I0
sI1734
I0
sI1735
I0
sI1736
I4
sI1737
I0
sI1738
I0
sI1739
I0
sI1740
I5
sI1741
I0
sI1742
I4
sI1743
I0
sI1744
I0
sI1745
I0
sI1746
I0
sI1747
I0
sI1748
I2
sI1749
I0
sI1750
I0
sI1751
I4
sI1752
I3
sI1753
I3
sI1754
I3
sI1755
I2
sI1756
I7
sI1757
I1
sI1758
I2
sI1759
I0
sI1760
I2
sI1761
I2
sI1762
I3
sI1763
I4
sI1764
I6
sI1765
I0
sI1766
I2
sI1767
I0
sI1768
I1
sI1769
I5
sI1770
I0
sI1771
I0
sI1772
I4
sI1773
I1
sI1774
I3
sI1775
I2
sI1776
I3
sI1777
I4
sI1778
I6
sI1779
I3
sI1780
I1
sI1781
I2
sI1782
I0
sI1783
I0
sI1784
I0
sI1785
I4
sI1786
I2
sI1787
I4
sI1788
I4
sI1789
I0
sI1790
I0
sI1791
I0
sI1792
I0
sI1793
I3
sI1794
I0
sI1795
I0
sI1796
I0
sI1797
I1
sI1798
I7
sI1799
I0
sI1800
I2
sI1801
I0
sI1802
I0
sI1803
I3
sI1804
I0
sI1805
I0
sI1806
I0
sI1807
I0
sI1808
I0
sI1809
I4
sI1810
I4
sI1811
I4
sI1812
I4
sI1813
I4
sI1814
I4
sI1815
I0
sI1816
I0
sI1817
I0
sI1818
I0
sI1819
I0
sI1820
I3
sI1821
I0
sI1822
I5
sI1823
I4
sI1824
I4
sI1825
I0
sI1826
I0
sI1827
I4
sI1828
I4
sI1829
I0
sI1830
I0
sI1831
I0
sI1832
I0
sI1833
I0
sI1834
I0
sI1835
I0
sI1836
I0
sI1837
I0
sI1838
I4
sI1839
I0
sI1840
I0
sI1841
I4
sI1842
I0
sI1843
I0
sI1844
I0
sI1845
I0
sI1846
I0
sI1847
I0
sI1848
I5
sI1849
I0
sI1850
I0
sI1851
I4
sI1852
I2
sI1853
I2
sI1854
I6
sI1855
I1
sI1856
I1
sI1857
I6
sI1858
I1
sI1859
I3
sI1860
I1
sI1861
I6
sI1862
I3
sI1863
I4
sI1864
I3
sI1865
I0
sI1866
I4
sI1867
I7
sI1868
I0
sI1869
I4
sI1870
I4
sI1871
I0
sI1872
I2
sI1873
I4
sI1874
I0
sI1875
I1
sI1876
I2
sI1877
I3
sI1878
I0
sI1879
I0
sI1880
I0
sI1881
I4
sI1882
I4
sI1883
I3
sI1884
I4
sI1885
I0
sI1886
I5
sI1887
I0
sI1888
I0
sI1889
I0
sI1890
I0
sI1891
I7
sI1892
I0
sI1893
I2
sI1894
I0
sI1895
I2
sI1896
I0
sI1897
I4
sI1898
I0
sI1899
I0
sI1900
I0
sI1901
I0
sI1902
I0
sI1903
I0
sI1904
I0
sI1905
I0
sI1906
I0
sI1907
I4
sI1908
I0
sI1909
I0
sI1910
I0
sI1911
I0
sI1912
I0
sI1913
I0
sI1914
I0
sI1915
I2
sI1916
I5
sI1917
I4
sI1918
I0
sI1919
I0
sI1920
I0
sI1921
I0
sI1922
I4
sI1923
I2
sI1924
I2
sI1925
I0
sI1926
I0
sI1927
I0
sI1928
I0
sI1929
I4
sI1930
I0
sI1931
I0
sI1932
I4
sI1933
I1
sI1934
I0
sI1935
I7
sI1936
I6
sI1937
I6
sI1938
I0
sI1939
I6
sI1940
I6
sI1941
I6
sI1942
I0
sI1943
I3
sI1944
I0
sI1945
I4
sI1946
I4
sI1947
I0
sI1948
I0
sI1949
I4
sI1950
I0
sI1951
I4
sI1952
I2
sI1953
I2
sI1954
I5
sI1955
I0
sI1956
I7
sI1957
I2
sI1958
I0
sI1959
I3
sI1960
I7
sI1961
I1
sI1962
I1
sI1963
I2
sI1964
I1
sI1965
I0
sI1966
I0
sI1967
I0
sI1968
I0
sI1969
I0
sI1970
I0
sI1971
I0
sI1972
I4
sI1973
I0
sI1974
I0
sI1975
I0
sI1976
I0
sI1977
I6
sI1978
I3
sI1979
I0
sI1980
I0
sI1981
I0
sI1982
I0
sI1983
I0
sI1984
I0
sI1985
I0
sI1986
I4
sI1987
I0
sI1988
I4
sI1989
I0
sI1990
I0
sI1991
I0
sI1992
I0
sI1993
I0
sI1994
I3
sI1995
I0
sI1996
I0
sI1997
I1
sI1998
I0
sI1999
I0
sI2000
I0
sI2001
I4
sI2002
I0
sI2003
I0
sI2004
I0
sI2005
I0
sI2006
I4
sI2007
I2
sI2008
I2
sI2009
I0
sI2010
I0
sI2011
I0
sI2012
I2
sI2013
I3
sI2014
I4
sI2015
I0
sI2016
I2
sI2017
I3
sI2018
I0
sI2019
I0
sI2020
I0
sI2021
I3
sI2022
I3
sI2023
I3
sI2024
I6
sI2025
I2
sI2026
I5
sI2027
I2
sI2028
I6
sI2029
I0
sI2030
I3
sI2031
I2
sI2032
I3
sI2033
I3
sI2034
I1
sI2035
I0
sI2036
I1
sI2037
I0
sI2038
I0
sI2039
I7
sI2040
I3
sI2041
I0
sI2042
I3
sI2043
I5
sI2044
I3
sI2045
I1
sI2046
I2
sI2047
I6
sI2048
I0
sI2049
I2
sI2050
I3
sI2051
I0
sI2052
I2
sI2053
I1
sI2054
I5
sI2055
I3
sI2056
I2
sI2057
I5
sI2058
I0
sI2059
I4
sI2060
I2
sI2061
I2
sI2062
I2
sI2063
I0
sI2064
I0
sI2065
I0
sI2066
I0
sI2067
I5
sI2068
I0
sI2069
I0
sI2070
I0
sI2071
I4
sI2072
I4
sI2073
I0
sI2074
I0
sI2075
I4
sI2076
I7
sI2077
I2
sI2078
I0
sI2079
I0
sI2080
I0
sI2081
I0
sI2082
I0
sI2083
I0
sI2084
I1
sI2085
I2
sI2086
I6
sI2087
I4
sI2088
I0
sI2089
I0
sI2090
I0
sI2091
I0
sI2092
I0
sI2093
I0
sI2094
I0
sI2095
I0
sI2096
I4
sI2097
I0
sI2098
I4
sI2099
I0
sI2100
I0
sI2101
I0
sI2102
I0
sI2103
I0
sI2104
I0
sI2105
I4
sI2106
I0
sI2107
I0
sI2108
I4
sI2109
I4
sI2110
I0
sI2111
I0
sI2112
I4
sI2113
I0
sI2114
I4
sI2115
I4
sI2116
I0
sI2117
I0
sI2118
I2
sI2119
I0
sI2120
I0
sI2121
I0
sI2122
I4
sI2123
I3
sI2124
I0
sI2125
I3
sI2126
I3
sI2127
I0
sI2128
I2
sI2129
I0
sI2130
I3
sI2131
I0
sI2132
I0
sI2133
I0
sI2134
I3
sI2135
I3
sI2136
I0
sI2137
I0
sI2138
I0
sI2139
I5
sI2140
I0
sI2141
I0
sI2142
I0
sI2143
I5
sI2144
I0
sI2145
I1
sI2146
I5
sI2147
I2
sI2148
I5
sI2149
I2
sI2150
I2
sI2151
I1
sI2152
I4
sI2153
I2
sI2154
I0
sI2155
I1
sI2156
I0
sI2157
I4
sI2158
I3
sI2159
I0
sI2160
I3
sI2161
I0
sI2162
I2
sI2163
I3
sI2164
I0
sI2165
I0
sI2166
I7
sI2167
I4
sI2168
I6
sI2169
I0
sI2170
I0
sI2171
I6
sI2172
I4
sI2173
I0
sI2174
I0
sI2175
I1
sI2176
I4
sI2177
I0
sI2178
I4
sI2179
I3
sI2180
I3
sI2181
I4
sI2182
I4
sI2183
I4
sI2184
I0
sI2185
I0
sI2186
I0
sI2187
I3
sI2188
I0
sI2189
I3
sI2190
I0
sI2191
I0
sI2192
I0
sI2193
I4
sI2194
I4
sI2195
I0
sI2196
I0
sI2197
I0
sI2198
I0
sI2199
I0
sI2200
I0
sI2201
I0
sI2202
I4
sI2203
I0
sI2204
I0
sI2205
I4
sI2206
I3
sI2207
I4
sI2208
I4
sI2209
I4
sI2210
I0
sI2211
I0
sI2212
I0
sI2213
I0
sI2214
I0
sI2215
I5
sI2216
I2
sI2217
I0
sI2218
I0
sI2219
I4
sI2220
I4
sI2221
I0
sI2222
I4
sI2223
I4
sI2224
I0
sI2225
I0
sI2226
I3
sI2227
I0
sI2228
I0
sI2229
I0
sI2230
I0
sI2231
I0
sI2232
I0
sI2233
I2
sI2234
I0
sI2235
I4
sI2236
I0
sI2237
I3
sI2238
I0
sI2239
I0
sI2240
I2
sI2241
I3
sI2242
I0
sI2243
I4
sI2244
I4
sI2245
I7
sI2246
I0
sI2247
I0
sI2248
I3
sI2249
I0
sI2250
I2
sI2251
I0
sI2252
I3
sI2253
I4
sI2254
I2
sI2255
I2
sI2256
I0
sI2257
I3
sI2258
I0
sI2259
I1
sI2260
I7
sI2261
I1
sI2262
I0
sI2263
I1
sI2264
I3
sI2265
I2
sI2266
I6
sI2267
I3
sI2268
I3
sI2269
I4
sI2270
I0
sI2271
I1
sI2272
I6
sI2273
I0
sI2274
I2
sI2275
I1
sI2276
I7
sI2277
I0
sI2278
I3
sI2279
I2
sI2280
I3
sI2281
I0
sI2282
I4
sI2283
I4
sI2284
I0
sI2285
I0
sI2286
I0
sI2287
I0
sI2288
I1
sI2289
I1
sI2290
I1
sI2291
I0
sI2292
I0
sI2293
I5
sI2294
I1
sI2295
I0
sI2296
I4
sI2297
I4
sI2298
I5
sI2299
I0
sI2300
I6
sI2301
I0
sI2302
I0
sI2303
I0
sI2304
I2
sI2305
I0
sI2306
I0
sI2307
I0
sI2308
I0
sI2309
I0
sI2310
I0
sI2311
I4
sI2312
I4
sI2313
I0
sI2314
I0
sI2315
I0
sI2316
I4
sI2317
I4
sI2318
I0
sI2319
I0
sI2320
I3
sI2321
I0
sI2322
I0
sI2323
I4
sI2324
I0
sI2325
I0
sI2326
I0
sI2327
I4
sI2328
I0
sI2329
I1
sI2330
I0
sI2331
I0
sI2332
I0
sI2333
I0
sI2334
I0
sI2335
I0
sI2336
I0
sI2337
I4
sI2338
I4
sI2339
I0
sI2340
I2
sI2341
I0
sI2342
I4
sI2343
I0
sI2344
I0
sI2345
I4
sI2346
I0
sI2347
I0
sI2348
I1
sI2349
I2
sI2350
I0
sI2351
I4
sI2352
I0
sI2353
I2
sI2354
I2
sI2355
I0
sI2356
I3
sI2357
I0
sI2358
I0
sI2359
I4
sI2360
I0
sI2361
I2
sI2362
I3
sI2363
I2
sI2364
I0
sI2365
I0
sI2366
I5
sI2367
I0
sI2368
I1
sI2369
I6
sI2370
I2
sI2371
I2
sI2372
I6
sI2373
I0
sI2374
I0
sI2375
I2
sI2376
I5
sI2377
I0
sI2378
I3
sI2379
I0
sI2380
I0
sI2381
I2
sI2382
I1
sI2383
I6
sI2384
I4
sI2385
I0
sI2386
I3
sI2387
I3
sI2388
I4
sI2389
I3
sI2390
I2
sI2391
I3
sI2392
I1
sI2393
I4
sI2394
I1
sI2395
I5
sI2396
I0
sI2397
I4
sI2398
I0
sI2399
I4
sI2400
I3
sI2401
I0
sI2402
I0
sI2403
I0
sI2404
I4
sI2405
I4
sI2406
I1
sI2407
I4
sI2408
I0
sI2409
I1
sI2410
I0
sI2411
I4
sI2412
I3
sI2413
I0
sI2414
I0
sI2415
I0
sI2416
I0
sI2417
I3
sI2418
I5
sI2419
I4
sI2420
I0
sI2421
I2
sI2422
I0
sI2423
I0
sI2424
I0
sI2425
I0
sI2426
I0
sI2427
I0
sI2428
I0
sI2429
I0
sI2430
I1
sI2431
I2
sI2432
I0
sI2433
I3
sI2434
I4
sI2435
I3
sI2436
I3
sI2437
I0
sI2438
I0
sI2439
I0
sI2440
I4
sI2441
I0
sI2442
I0
sI2443
I0
sI2444
I0
sI2445
I0
sI2446
I0
sI2447
I0
sI2448
I0
sI2449
I0
sI2450
I4
sI2451
I0
sI2452
I4
sI2453
I0
sI2454
I4
sI2455
I0
sI2456
I0
sI2457
I0
sI2458
I0
sI2459
I0
sI2460
I0
sI2461
I3
sI2462
I0
sI2463
I7
sI2464
I0
sI2465
I4
sI2466
I2
sI2467
I0
sI2468
I0
sI2469
I0
sI2470
I0
sI2471
I0
sI2472
I4
sI2473
I0
sI2474
I0
sI2475
I4
sI2476
I0
sI2477
I0
sI2478
I2
sI2479
I3
sI2480
I4
sI2481
I0
sI2482
I0
sI2483
I0
sI2484
I4
sI2485
I3
sI2486
I4
sI2487
I0
sI2488
I0
sI2489
I0
sI2490
I0
sI2491
I0
sI2492
I0
sI2493
I0
sI2494
I2
sI2495
I0
sI2496
I4
sI2497
I0
sI2498
I0
sI2499
I0
sI2500
I0
sI2501
I3
sI2502
I0
sI2503
I3
sI2504
I0
sI2505
I0
sI2506
I3
sI2507
I4
sI2508
I0
sI2509
I1
sI2510
I6
sI2511
I0
sI2512
I2
sI2513
I7
sI2514
I2
sI2515
I6
sI2516
I2
sI2517
I3
sI2518
I6
sI2519
I2
sI2520
I0
sI2521
I2
sI2522
I4
sI2523
I0
sI2524
I6
sI2525
I7
sI2526
I0
sI2527
I5
sI2528
I3
sI2529
I4
sI2530
I5
sI2531
I1
sI2532
I3
sI2533
I0
sI2534
I1
sI2535
I1
sI2536
I1
sI2537
I3
sI2538
I2
sI2539
I2
sI2540
I4
sI2541
I0
sI2542
I0
sI2543
I2
sI2544
I0
sI2545
I2
sI2546
I3
sI2547
I1
sI2548
I0
sI2549
I1
sI2550
I2
sI2551
I6
sI2552
I2
sI2553
I1
sI2554
I4
sI2555
I0
sI2556
I4
sI2557
I0
sI2558
I0
sI2559
I3
sI2560
I0
sI2561
I4
sI2562
I4
sI2563
I1
sI2564
I0
sI2565
I2
sI2566
I0
sI2567
I0
sI2568
I0
sI2569
I0
sI2570
I0
sI2571
I0
sI2572
I0
sI2573
I1
sI2574
I0
sI2575
I3
sI2576
I0
sI2577
I0
sI2578
I0
sI2579
I0
sI2580
I0
sI2581
I0
sI2582
I0
sI2583
I0
sI2584
I4
sI2585
I4
sI2586
I4
sI2587
I4
sI2588
I4
sI2589
I3
sI2590
I3
sI2591
I4
sI2592
I4
sI2593
I4
sI2594
I0
sI2595
I0
sI2596
I0
sI2597
I0
sI2598
I5
sI2599
I0
sI2600
I4
sI2601
I4
sI2602
I0
sI2603
I0
sI2604
I4
sI2605
I0
sI2606
I4
sI2607
I3
sI2608
I0
sI2609
I4
sI2610
I0
sI2611
I3
sI2612
I0
sI2613
I0
sI2614
I0
sI2615
I1
sI2616
I0
sI2617
I2
sI2618
I4
sI2619
I2
sI2620
I0
sI2621
I4
sI2622
I4
sI2623
I4
sI2624
I0
sI2625
I4
sI2626
I0
sI2627
I0
sI2628
I4
sI2629
I0
sI2630
I5
sI2631
I0
sI2632
I0
sI2633
I0
sI2634
I2
sI2635
I0
sI2636
I0
sI2637
I0
sI2638
I4
sI2639
I3
sI2640
I3
sI2641
I0
sI2642
I0
sI2643
I4
sI2644
I3
sI2645
I6
sI2646
I7
sI2647
I0
sI2648
I4
sI2649
I2
sI2650
I3
sI2651
I2
sI2652
I2
sI2653
I4
sI2654
I1
sI2655
I0
sI2656
I1
sI2657
I3
sI2658
I3
sI2659
I2
sI2660
I1
sI2661
I6
sI2662
I3
sI2663
I2
sI2664
I3
sI2665
I2
sI2666
I7
sI2667
I4
sI2668
I0
sI2669
I0
sI2670
I1
sI2671
I4
sI2672
I3
sI2673
I2
sI2674
I0
sI2675
I3
sI2676
I0
sI2677
I2
sI2678
I4
sI2679
I4
sI2680
I4
sI2681
I2
sI2682
I0
sI2683
I1
sI2684
I1
sI2685
I3
sI2686
I1
sI2687
I0
sI2688
I2
sI2689
I0
sI2690
I0
sI2691
I7
sI2692
I0
sI2693
I4
sI2694
I4
sI2695
I5
sI2696
I3
sI2697
I3
sI2698
I3
sI2699
I2
sI2700
I4
sI2701
I4
sI2702
I4
sI2703
I0
sI2704
I0
sI2705
I0
sI2706
I0
sI2707
I3
sI2708
I2
sI2709
I0
sI2710
I2
sI2711
I0
sI2712
I0
sI2713
I0
sI2714
I2
sI2715
I0
sI2716
I0
sI2717
I0
sI2718
I0
sI2719
I0
sI2720
I1
sI2721
I4
sI2722
I1
sI2723
I0
sI2724
I3
sI2725
I4
sI2726
I4
sI2727
I0
sI2728
I4
sI2729
I3
sI2730
I4
sI2731
I0
sI2732
I0
sI2733
I0
sI2734
I0
sI2735
I0
sI2736
I0
sI2737
I3
sI2738
I2
sI2739
I0
sI2740
I4
sI2741
I4
sI2742
I4
sI2743
I0
sI2744
I3
sI2745
I0
sI2746
I0
sI2747
I0
sI2748
I0
sI2749
I0
sI2750
I0
sI2751
I4
sI2752
I3
sI2753
I2
sI2754
I0
sI2755
I7
sI2756
I0
sI2757
I0
sI2758
I3
sI2759
I0
sI2760
I3
sI2761
I4
sI2762
I0
sI2763
I0
sI2764
I0
sI2765
I0
sI2766
I3
sI2767
I0
sI2768
I3
sI2769
I3
sI2770
I3
sI2771
I4
sI2772
I3
sI2773
I3
sI2774
I4
sI2775
I4
sI2776
I4
sI2777
I3
sI2778
I0
sI2779
I0
sI2780
I1
sI2781
I0
sI2782
I4
sI2783
I2
sI2784
I0
sI2785
I0
sI2786
I0
sI2787
I0
sI2788
I0
sI2789
I0
sI2790
I0
sI2791
I2
sI2792
I3
sI2793
I2
sI2794
I2
sI2795
I0
sI2796
I1
sI2797
I3
sI2798
I3
sI2799
I7
sI2800
I2
sI2801
I2
sI2802
I2
sI2803
I3
sI2804
I0
sI2805
I3
sI2806
I6
sI2807
I2
sI2808
I4
sI2809
I3
sI2810
I3
sI2811
I3
sI2812
I4
sI2813
I6
sI2814
I2
sI2815
I3
sI2816
I1
sI2817
I0
sI2818
I2
sI2819
I0
sI2820
I2
sI2821
I1
sI2822
I3
sI2823
I2
sI2824
I0
sI2825
I2
sI2826
I2
sI2827
I2
sI2828
I2
sI2829
I2
sI2830
I4
sI2831
I1
sI2832
I0
sI2833
I0
sI2834
I2
sI2835
I0
sI2836
I2
sI2837
I1
sI2838
I1
sI2839
I0
sI2840
I1
sI2841
I0
sI2842
I0
sI2843
I0
sI2844
I0
sI2845
I3
sI2846
I4
sI2847
I4
sI2848
I0
sI2849
I0
sI2850
I3
sI2851
I2
sI2852
I4
sI2853
I2
sI2854
I0
sI2855
I1
sI2856
I4
sI2857
I0
sI2858
I1
sI2859
I3
sI2860
I4
sI2861
I3
sI2862
I0
sI2863
I0
sI2864
I0
sI2865
I0
sI2866
I0
sI2867
I0
sI2868
I3
sI2869
I0
sI2870
I0
sI2871
I1
sI2872
I2
sI2873
I1
sI2874
I3
sI2875
I2
sI2876
I2
sI2877
I3
sI2878
I0
sI2879
I0
sI2880
I0
sI2881
I0
sI2882
I0
sI2883
I2
sI2884
I0
sI2885
I0
sI2886
I0
sI2887
I0
sI2888
I0
sI2889
I0
sI2890
I4
sI2891
I4
sI2892
I0
sI2893
I0
sI2894
I0
sI2895
I4
sI2896
I0
sI2897
I3
sI2898
I0
sI2899
I4
sI2900
I4
sI2901
I3
sI2902
I4
sI2903
I0
sI2904
I0
sI2905
I0
sI2906
I0
sI2907
I3
sI2908
I4
sI2909
I0
sI2910
I0
sI2911
I0
sI2912
I0
sI2913
I0
sI2914
I1
sI2915
I0
sI2916
I0
sI2917
I0
sI2918
I0
sI2919
I0
sI2920
I0
sI2921
I0
sI2922
I0
sI2923
I0
sI2924
I4
sI2925
I0
sI2926
I0
sI2927
I0
sI2928
I0
sI2929
I0
sI2930
I2
sI2931
I0
sI2932
I0
sI2933
I2
sI2934
I0
sI2935
I0
sI2936
I0
sI2937
I0
sI2938
I0
sI2939
I3
sI2940
I0
sI2941
I0
sI2942
I0
sI2943
I1
sI2944
I2
sI2945
I0
sI2946
I0
sI2947
I3
sI2948
I4
sI2949
I3
sI2950
I0
sI2951
I1
sI2952
I4
sI2953
I0
sI2954
I0
sI2955
I0
sI2956
I4
sI2957
I0
sI2958
I0
sI2959
I4
sI2960
I0
sI2961
I4
sI2962
I0
sI2963
I0
sI2964
I3
sI2965
I0
sI2966
I2
sI2967
I0
sI2968
I0
sI2969
I0
sI2970
I3
sI2971
I3
sI2972
I2
sI2973
I6
sI2974
I6
sI2975
I6
sI2976
I2
sI2977
I7
sI2978
I5
sI2979
I3
sI2980
I1
sI2981
I2
sI2982
I2
sI2983
I3
sI2984
I3
sI2985
I1
sI2986
I2
sI2987
I2
sI2988
I0
sI2989
I3
sI2990
I4
sI2991
I1
sI2992
I6
sI2993
I6
sI2994
I1
sI2995
I6
sI2996
I3
sI2997
I1
sI2998
I0
sI2999
I3
sI3000
I1
sI3001
I1
sI3002
I3
sI3003
I3
sI3004
I1
sI3005
I5
sI3006
I4
sI3007
I3
sI3008
I2
sI3009
I2
sI3010
I0
sI3011
I1
sI3012
I2
sI3013
I0
sI3014
I1
sI3015
I0
sI3016
I0
sI3017
I0
sI3018
I0
sI3019
I4
sI3020
I3
sI3021
I0
sI3022
I0
sI3023
I4
sI3024
I0
sI3025
I2
sI3026
I3
sI3027
I0
sI3028
I4
sI3029
I0
sI3030
I0
sI3031
I1
sI3032
I0
sI3033
I0
sI3034
I2
sI3035
I3
sI3036
I0
sI3037
I0
sI3038
I0
sI3039
I0
sI3040
I0
sI3041
I0
sI3042
I4
sI3043
I0
sI3044
I0
sI3045
I2
sI3046
I0
sI3047
I0
sI3048
I1
sI3049
I4
sI3050
I1
sI3051
I0
sI3052
I0
sI3053
I7
sI3054
I1
sI3055
I0
sI3056
I2
sI3057
I1
sI3058
I0
sI3059
I0
sI3060
I2
sI3061
I7
sI3062
I2
sI3063
I0
sI3064
I4
sI3065
I0
sI3066
I3
sI3067
I0
sI3068
I2
sI3069
I0
sI3070
I4
sI3071
I4
sI3072
I0
sI3073
I7
sI3074
I2
sI3075
I0
sI3076
I0
sI3077
I0
sI3078
I0
sI3079
I0
sI3080
I0
sI3081
I0
sI3082
I4
sI3083
I0
sI3084
I0
sI3085
I4
sI3086
I0
sI3087
I4
sI3088
I2
sI3089
I0
sI3090
I0
sI3091
I2
sI3092
I0
sI3093
I0
sI3094
I4
sI3095
I0
sI3096
I0
sI3097
I0
sI3098
I0
sI3099
I5
sI3100
I2
sI3101
I3
sI3102
I0
sI3103
I0
sI3104
I4
sI3105
I0
sI3106
I0
sI3107
I0
sI3108
I0
sI3109
I0
sI3110
I0
sI3111
I0
sI3112
I0
sI3113
I0
sI3114
I1
sI3115
I4
sI3116
I6
sI3117
I0
sI3118
I2
sI3119
I0
sI3120
I3
sI3121
I0
sI3122
I0
sI3123
I2
sI3124
I3
sI3125
I0
sI3126
I7
sI3127
I3
sI3128
I0
sI3129
I0
sI3130
I3
sI3131
I2
sI3132
I6
sI3133
I3
sI3134
I0
sI3135
I1
sI3136
I3
sI3137
I0
sI3138
I0
sI3139
I0
sI3140
I4
sI3141
I0
sI3142
I0
sI3143
I0
sI3144
I0
sI3145
I3
sI3146
I0
sI3147
I3
sI3148
I0
sI3149
I0
sI3150
I3
sI3151
I0
sI3152
I4
sI3153
I0
sI3154
I0
sI3155
I4
sI3156
I0
sI3157
I4
sI3158
I0
sI3159
I0
sI3160
I0
sI3161
I4
sI3162
I1
sI3163
I0
sI3164
I2
sI3165
I2
sI3166
I0
sI3167
I0
sI3168
I2
sI3169
I3
sI3170
I3
sI3171
I7
sI3172
I2
sI3173
I1
sI3174
I1
sI3175
I3
sI3176
I3
sI3177
I3
sI3178
I1
sI3179
I2
sI3180
I0
sI3181
I4
sI3182
I7
sI3183
I0
sI3184
I0
sI3185
I6
sI3186
I0
sI3187
I1
sI3188
I2
sI3189
I4
sI3190
I4
sI3191
I2
sI3192
I3
sI3193
I1
sI3194
I3
sI3195
I3
sI3196
I3
sI3197
I1
sI3198
I1
sI3199
I4
sI3200
I4
sI3201
I1
sI3202
I0
sI3203
I0
sI3204
I0
sI3205
I5
sI3206
I5
sI3207
I0
sI3208
I0
sI3209
I1
sI3210
I0
sI3211
I1
sI3212
I1
sI3213
I2
sI3214
I2
sI3215
I3
sI3216
I2
sI3217
I3
sI3218
I0
sI3219
I4
sI3220
I4
sI3221
I0
sI3222
I4
sI3223
I4
sI3224
I0
sI3225
I4
sI3226
I3
sI3227
I4
sI3228
I0
sI3229
I0
sI3230
I0
sI3231
I0
sI3232
I0
sI3233
I0
sI3234
I0
sI3235
I0
sI3236
I3
sI3237
I0
sI3238
I0
sI3239
I0
sI3240
I0
sI3241
I1
sI3242
I2
sI3243
I0
sI3244
I2
sI3245
I1
sI3246
I0
sI3247
I2
sI3248
I2
sI3249
I0
sI3250
I0
sI3251
I0
sI3252
I0
sI3253
I4
sI3254
I3
sI3255
I3
sI3256
I0
sI3257
I0
sI3258
I0
sI3259
I0
sI3260
I0
sI3261
I0
sI3262
I0
sI3263
I0
sI3264
I0
sI3265
I0
sI3266
I0
sI3267
I0
sI3268
I4
sI3269
I4
sI3270
I3
sI3271
I3
sI3272
I3
sI3273
I4
sI3274
I4
sI3275
I4
sI3276
I4
sI3277
I0
sI3278
I4
sI3279
I0
sI3280
I4
sI3281
I0
sI3282
I0
sI3283
I0
sI3284
I0
sI3285
I0
sI3286
I0
sI3287
I0
sI3288
I0
sI3289
I0
sI3290
I0
sI3291
I0
sI3292
I4
sI3293
I5
sI3294
I0
sI3295
I0
sI3296
I0
sI3297
I0
sI3298
I0
sI3299
I1
sI3300
I0
sI3301
I0
sI3302
I4
sI3303
I4
sI3304
I3
sI3305
I0
sI3306
I4
sI3307
I0
sI3308
I4
sI3309
I4
sI3310
I0
sI3311
I0
sI3312
I0
sI3313
I0
sI3314
I4
sI3315
I3
sI3316
I0
sI3317
I0
sI3318
I0
sI3319
I2
sI3320
I3
sI3321
I4
sI3322
I0
sI3323
I0
sI3324
I4
sI3325
I4
sI3326
I1
sI3327
I4
sI3328
I4
sI3329
I0
sI3330
I0
sI3331
I0
sI3332
I0
sI3333
I0
sI3334
I3
sI3335
I0
sI3336
I0
sI3337
I0
sI3338
I2
sI3339
I2
sI3340
I0
sI3341
I4
sI3342
I0
sI3343
I0
sI3344
I0
sI3345
I0
sI3346
I0
sI3347
I4
sI3348
I4
sI3349
I0
sI3350
I2
sI3351
I3
sI3352
I2
sI3353
I4
sI3354
I4
sI3355
I3
sI3356
I2
sI3357
I1
sI3358
I3
sI3359
I4
sI3360
I6
sI3361
I3
sI3362
I0
sI3363
I1
sI3364
I1
sI3365
I1
sI3366
I1
sI3367
I1
sI3368
I3
sI3369
I1
sI3370
I2
sI3371
I0
sI3372
I2
sI3373
I3
sI3374
I6
sI3375
I4
sI3376
I0
sI3377
I1
sI3378
I3
sI3379
I1
sI3380
I0
sI3381
I0
sI3382
I4
sI3383
I4
sI3384
I0
sI3385
I1
sI3386
I2
sI3387
I4
sI3388
I0
sI3389
I0
sI3390
I5
sI3391
I4
sI3392
I4
sI3393
I0
sI3394
I3
sI3395
I0
sI3396
I6
sI3397
I0
sI3398
I3
sI3399
I3
sI3400
I3
sI3401
I0
sI3402
I0
sI3403
I3
sI3404
I4
sI3405
I4
sI3406
I4
sI3407
I0
sI3408
I4
sI3409
I2
sI3410
I0
sI3411
I0
sI3412
I2
sI3413
I2
sI3414
I4
sI3415
I1
sI3416
I2
sI3417
I0
sI3418
I0
sI3419
I0
sI3420
I0
sI3421
I1
sI3422
I0
sI3423
I0
sI3424
I1
sI3425
I0
sI3426
I3
sI3427
I1
sI3428
I1
sI3429
I2
sI3430
I0
sI3431
I3
sI3432
I6
sI3433
I1
sI3434
I2
sI3435
I2
sI3436
I0
sI3437
I1
sI3438
I0
sI3439
I1
sI3440
I0
sI3441
I3
sI3442
I2
sI3443
I2
sI3444
I2
sI3445
I0
sI3446
I0
sI3447
I4
sI3448
I1
sI3449
I0
sI3450
I3
sI3451
I0
sI3452
I0
sI3453
I4
sI3454
I3
sI3455
I1
sI3456
I0
sI3457
I0
sI3458
I0
sI3459
I0
sI3460
I0
sI3461
I0
sI3462
I0
sI3463
I0
sI3464
I0
sI3465
I0
sI3466
I4
sI3467
I4
sI3468
I0
sI3469
I0
sI3470
I4
sI3471
I0
sI3472
I4
sI3473
I3
sI3474
I4
sI3475
I0
sI3476
I4
sI3477
I2
sI3478
I0
sI3479
I0
sI3480
I0
sI3481
I3
sI3482
I0
sI3483
I0
sI3484
I0
sI3485
I0
sI3486
I0
sI3487
I0
sI3488
I0
sI3489
I3
sI3490
I0
sI3491
I2
sI3492
I4
sI3493
I0
sI3494
I0
sI3495
I0
sI3496
I4
sI3497
I0
sI3498
I1
sI3499
I1
sI3500
I0
sI3501
I0
sI3502
I0
sI3503
I0
sI3504
I4
sI3505
I0
sI3506
I4
sI3507
I0
sI3508
I0
sI3509
I0
sI3510
I0
sI3511
I4
sI3512
I0
sI3513
I3
sI3514
I0
sI3515
I0
sI3516
I4
sI3517
I3
sI3518
I0
sI3519
I0
sI3520
I3
sI3521
I0
sI3522
I3
sI3523
I0
sI3524
I0
sI3525
I1
sI3526
I4
sI3527
I0
sI3528
I2
sI3529
I1
sI3530
I3
sI3531
I0
sI3532
I0
sI3533
I0
sI3534
I0
sI3535
I2
sI3536
I4
sI3537
I3
sI3538
I4
sI3539
I4
sI3540
I0
sI3541
I0
sI3542
I3
sI3543
I0
sI3544
I4
sI3545
I0
sI3546
I2
sI3547
I3
sI3548
I3
sI3549
I0
sI3550
I0
sI3551
I0
sI3552
I0
sI3553
I0
sI3554
I0
sI3555
I0
sI3556
I0
sI3557
I3
sI3558
I2
sI3559
I3
sI3560
I2
sI3561
I4
sI3562
I4
sI3563
I0
sI3564
I4
sI3565
I0
sI3566
I4
sI3567
I0
sI3568
I0
sI3569
I0
sI3570
I4
sI3571
I0
sI3572
I0
sI3573
I5
sI3574
I4
sI3575
I5
sI3576
I0
sI3577
I2
sI3578
I0
sI3579
I3
sI3580
I2
sI3581
I2
sI3582
I3
sI3583
I3
sI3584
I2
sI3585
I2
sI3586
I3
sI3587
I0
sI3588
I0
sI3589
I2
sI3590
I3
sI3591
I0
sI3592
I3
sI3593
I2
sI3594
I3
sI3595
I3
sI3596
I1
sI3597
I2
sI3598
I2
sI3599
I3
sI3600
I1
sI3601
I1
sI3602
I3
sI3603
I6
sI3604
I1
sI3605
I3
sI3606
I4
sI3607
I3
sI3608
I1
sI3609
I6
sI3610
I4
sI3611
I6
sI3612
I4
sI3613
I7
sI3614
I4
sI3615
I0
sI3616
I7
sI3617
I3
sI3618
I0
sI3619
I2
sI3620
I7
sI3621
I3
sI3622
I6
sI3623
I1
sI3624
I3
sI3625
I0
sI3626
I3
sI3627
I0
sI3628
I2
sI3629
I1
sI3630
I0
sI3631
I3
sI3632
I0
sI3633
I0
sI3634
I1
sI3635
I0
sI3636
I0
sI3637
I0
sI3638
I0
sI3639
I0
sI3640
I0
sI3641
I1
sI3642
I1
sI3643
I2
sI3644
I1
sI3645
I0
sI3646
I2
sI3647
I0
sI3648
I2
sI3649
I1
sI3650
I1
sI3651
I0
sI3652
I4
sI3653
I0
sI3654
I3
sI3655
I0
sI3656
I1
sI3657
I1
sI3658
I3
sI3659
I4
sI3660
I0
sI3661
I0
sI3662
I2
sI3663
I1
sI3664
I0
sI3665
I1
sI3666
I3
sI3667
I0
sI3668
I0
sI3669
I4
sI3670
I0
sI3671
I0
sI3672
I1
sI3673
I0
sI3674
I0
sI3675
I2
sI3676
I1
sI3677
I0
sI3678
I0
sI3679
I1
sI3680
I3
sI3681
I7
sI3682
I1
sI3683
I1
sI3684
I0
sI3685
I3
sI3686
I0
sI3687
I1
sI3688
I2
sI3689
I1
sI3690
I1
sI3691
I2
sI3692
I2
sI3693
I0
sI3694
I0
sI3695
I0
sI3696
I4
sI3697
I3
sI3698
I0
sI3699
I0
sI3700
I0
sI3701
I0
sI3702
I2
sI3703
I0
sI3704
I0
sI3705
I0
sI3706
I0
sI3707
I0
sI3708
I0
sI3709
I4
sI3710
I0
sI3711
I4
sI3712
I3
sI3713
I5
sI3714
I4
sI3715
I0
sI3716
I3
sI3717
I4
sI3718
I4
sI3719
I4
sI3720
I4
sI3721
I0
sI3722
I0
sI3723
I0
sI3724
I0
sI3725
I0
sI3726
I0
sI3727
I0
sI3728
I0
sI3729
I0
sI3730
I0
sI3731
I0
sI3732
I5
sI3733
I2
sI3734
I0
sI3735
I5
sI3736
I0
sI3737
I0
sI3738
I0
sI3739
I0
sI3740
I4
sI3741
I0
sI3742
I3
sI3743
I5
sI3744
I0
sI3745
I3
sI3746
I0
sI3747
I0
sI3748
I4
sI3749
I0
sI3750
I0
sI3751
I2
sI3752
I6
sI3753
I6
sI3754
I4
sI3755
I0
sI3756
I0
sI3757
I6
sI3758
I0
sI3759
I0
sI3760
I0
sI3761
I4
sI3762
I4
sI3763
I0
sI3764
I0
sI3765
I0
sI3766
I0
sI3767
I0
sI3768
I0
sI3769
I0
sI3770
I0
sI3771
I3
sI3772
I2
sI3773
I0
sI3774
I4
sI3775
I0
sI3776
I4
sI3777
I4
sI3778
I4
sI3779
I3
sI3780
I4
sI3781
I2
sI3782
I4
sI3783
I0
sI3784
I0
sI3785
I7
sI3786
I3
sI3787
I0
sI3788
I0
sI3789
I2
sI3790
I4
sI3791
I0
sI3792
I3
sI3793
I0
sI3794
I4
sI3795
I4
sI3796
I3
sI3797
I2
sI3798
I0
sI3799
I4
sI3800
I0
sI3801
I0
sI3802
I3
sI3803
I0
sI3804
I4
sI3805
I3
sI3806
I4
sI3807
I4
sI3808
I0
sI3809
I3
sI3810
I0
sI3811
I6
sI3812
I0
sI3813
I0
sI3814
I0
sI3815
I4
sI3816
I0
sI3817
I2
sI3818
I0
sI3819
I0
sI3820
I3
sI3821
I2
sI3822
I0
sI3823
I0
sI3824
I0
sI3825
I0
sI3826
I0
sI3827
I3
sI3828
I2
sI3829
I2
sI3830
I3
sI3831
I3
sI3832
I4
sI3833
I0
sI3834
I0
sI3835
I0
sI3836
I2
sI3837
I0
sI3838
I1
sI3839
I0
sI3840
I0
sI3841
I1
sI3842
I5
sI3843
I3
sI3844
I4
sI3845
I1
sI3846
I0
sI3847
I1
sI3848
I6
sI3849
I9
sI3850
I1
sI3851
I6
sI3852
I1
sI3853
I1
sI3854
I2
sI3855
I2
sI3856
I4
sI3857
I1
sI3858
I6
sI3859
I1
sI3860
I6
sI3861
I3
sI3862
I6
sI3863
I0
sI3864
I2
sI3865
I4
sI3866
I7
sI3867
I2
sI3868
I6
sI3869
I7
sI3870
I1
sI3871
I7
sI3872
I1
sI3873
I1
sI3874
I0
sI3875
I0
sI3876
I4
sI3877
I1
sI3878
I3
sI3879
I4
sI3880
I2
sI3881
I2
sI3882
I2
sI3883
I3
sI3884
I3
sI3885
I4
sI3886
I4
sI3887
I0
sI3888
I0
sI3889
I1
sI3890
I5
sI3891
I3
sI3892
I0
sI3893
I0
sI3894
I4
sI3895
I4
sI3896
I3
sI3897
I1
sI3898
I2
sI3899
I3
sI3900
I0
sI3901
I0
sI3902
I2
sI3903
I2
sI3904
I2
sI3905
I2
sI3906
I1
sI3907
I2
sI3908
I3
sI3909
I0
sI3910
I4
sI3911
I0
sI3912
I2
sI3913
I3
sI3914
I4
sI3915
I3
sI3916
I0
sI3917
I3
sI3918
I4
sI3919
I2
sI3920
I3
sI3921
I0
sI3922
I0
sI3923
I4
sI3924
I4
sI3925
I5
sI3926
I4
sI3927
I2
sI3928
I3
sI3929
I3
sI3930
I0
sI3931
I0
sI3932
I4
sI3933
I4
sI3934
I0
sI3935
I0
sI3936
I3
sI3937
I0
sI3938
I0
sI3939
I2
sI3940
I0
sI3941
I0
sI3942
I0
sI3943
I0
sI3944
I0
sI3945
I0
sI3946
I1
sI3947
I0
sI3948
I1
sI3949
I2
sI3950
I3
sI3951
I0
sI3952
I6
sI3953
I1
sI3954
I0
sI3955
I3
sI3956
I2
sI3957
I3
sI3958
I2
sI3959
I2
sI3960
I2
sI3961
I1
sI3962
I0
sI3963
I3
sI3964
I0
sI3965
I2
sI3966
I2
sI3967
I0
sI3968
I0
sI3969
I3
sI3970
I0
sI3971
I0
sI3972
I4
sI3973
I4
sI3974
I0
sI3975
I3
sI3976
I0
sI3977
I0
sI3978
I0
sI3979
I0
sI3980
I4
sI3981
I0
sI3982
I2
sI3983
I0
sI3984
I4
sI3985
I0
sI3986
I4
sI3987
I0
sI3988
I0
sI3989
I4
sI3990
I4
sI3991
I4
sI3992
I4
sI3993
I4
sI3994
I0
sI3995
I4
sI3996
I4
sI3997
I0
sI3998
I0
sI3999
I0
sI4000
I0
sI4001
I0
sI4002
I0
sI4003
I0
sI4004
I0
sI4005
I0
sI4006
I0
sI4007
I0
sI4008
I0
sI4009
I4
sI4010
I0
sI4011
I0
sI4012
I5
sI4013
I5
sI4014
I5
sI4015
I2
sI4016
I0
sI4017
I0
sI4018
I0
sI4019
I0
sI4020
I0
sI4021
I3
sI4022
I3
sI4023
I0
sI4024
I3
sI4025
I3
sI4026
I0
sI4027
I0
sI4028
I0
sI4029
I0
sI4030
I0
sI4031
I0
sI4032
I6
sI4033
I1
sI4034
I0
sI4035
I6
sI4036
I0
sI4037
I0
sI4038
I0
sI4039
I0
sI4040
I0
sI4041
I0
sI4042
I0
sI4043
I0
sI4044
I0
sI4045
I2
sI4046
I0
sI4047
I3
sI4048
I3
sI4049
I2
sI4050
I3
sI4051
I0
sI4052
I1
sI4053
I4
sI4054
I0
sI4055
I0
sI4056
I4
sI4057
I2
sI4058
I0
sI4059
I4
sI4060
I4
sI4061
I0
sI4062
I3
sI4063
I0
sI4064
I0
sI4065
I0
sI4066
I0
sI4067
I3
sI4068
I2
sI4069
I2
sI4070
I0
sI4071
I3
sI4072
I0
sI4073
I0
sI4074
I4
sI4075
I0
sI4076
I0
sI4077
I4
sI4078
I4
sI4079
I3
sI4080
I4
sI4081
I4
sI4082
I7
sI4083
I3
sI4084
I0
sI4085
I3
sI4086
I3
sI4087
I4
sI4088
I4
sI4089
I3
sI4090
I0
sI4091
I4
sI4092
I0
sI4093
I0
sI4094
I0
sI4095
I0
sI4096
I0
sI4097
I0
sI4098
I0
sI4099
I0
sI4100
I3
sI4101
I0
sI4102
I3
sI4103
I1
sI4104
I4
sI4105
I0
sI4106
I0
sI4107
I0
sI4108
I0
sI4109
I2
sI4110
I3
sI4111
I0
sI4112
I3
sI4113
I0
sI4114
I0
sI4115
I4
sI4116
I0
sI4117
I0
sI4118
I0
sI4119
I3
sI4120
I0
sI4121
I4
sI4122
I0
sI4123
I0
sI4124
I0
sI4125
I2
sI4126
I3
sI4127
I0
sI4128
I3
sI4129
I2
sI4130
I4
sI4131
I3
sI4132
I4
sI4133
I2
sI4134
I3
sI4135
I3
sI4136
I6
sI4137
I0
sI4138
I1
sI4139
I4
sI4140
I4
sI4141
I4
sI4142
I6
sI4143
I6
sI4144
I0
sI4145
I1
sI4146
I3
sI4147
I6
sI4148
I0
sI4149
I6
sI4150
I3
sI4151
I1
sI4152
I6
sI4153
I4
sI4154
I1
sI4155
I3
sI4156
I1
sI4157
I1
sI4158
I1
sI4159
I1
sI4160
I0
sI4161
I3
sI4162
I6
sI4163
I3
sI4164
I2
sI4165
I3
sI4166
I6
sI4167
I6
sI4168
I2
sI4169
I6
sI4170
I4
sI4171
I0
sI4172
I0
sI4173
I4
sI4174
I2
sI4175
I6
sI4176
I1
sI4177
I0
sI4178
I0
sI4179
I3
sI4180
I0
sI4181
I0
sI4182
I3
sI4183
I3
sI4184
I4
sI4185
I0
sI4186
I0
sI4187
I0
sI4188
I2
sI4189
I3
sI4190
I7
sI4191
I4
sI4192
I2
sI4193
I1
sI4194
I0
sI4195
I0
sI4196
I0
sI4197
I0
sI4198
I4
sI4199
I4
sI4200
I1
sI4201
I1
sI4202
I0
sI4203
I0
sI4204
I1
sI4205
I4
sI4206
I2
sI4207
I4
sI4208
I4
sI4209
I0
sI4210
I2
sI4211
I2
sI4212
I4
sI4213
I1
sI4214
I3
sI4215
I5
sI4216
I2
sI4217
I0
sI4218
I0
sI4219
I0
sI4220
I0
sI4221
I5
sI4222
I0
sI4223
I3
sI4224
I0
sI4225
I2
sI4226
I4
sI4227
I3
sI4228
I1
sI4229
I0
sI4230
I3
sI4231
I0
sI4232
I0
sI4233
I1
sI4234
I2
sI4235
I2
sI4236
I3
sI4237
I0
sI4238
I3
sI4239
I6
sI4240
I2
sI4241
I4
sI4242
I0
sI4243
I1
sI4244
I3
sI4245
I0
sI4246
I0
sI4247
I2
sI4248
I0
sI4249
I0
sI4250
I7
sI4251
I0
sI4252
I0
sI4253
I0
sI4254
I0
sI4255
I4
sI4256
I4
sI4257
I4
sI4258
I0
sI4259
I4
sI4260
I0
sI4261
I0
sI4262
I4
sI4263
I0
sI4264
I4
sI4265
I0
sI4266
I3
sI4267
I4
sI4268
I0
sI4269
I0
sI4270
I3
sI4271
I4
sI4272
I0
sI4273
I0
sI4274
I0
sI4275
I0
sI4276
I0
sI4277
I0
sI4278
I0
sI4279
I4
sI4280
I4
sI4281
I0
sI4282
I0
sI4283
I0
sI4284
I3
sI4285
I3
sI4286
I5
sI4287
I3
sI4288
I3
sI4289
I0
sI4290
I4
sI4291
I3
sI4292
I0
sI4293
I4
sI4294
I0
sI4295
I1
sI4296
I0
sI4297
I0
sI4298
I0
sI4299
I1
sI4300
I0
sI4301
I4
sI4302
I4
sI4303
I3
sI4304
I0
sI4305
I4
sI4306
I4
sI4307
I0
sI4308
I0
sI4309
I4
sI4310
I0
sI4311
I3
sI4312
I0
sI4313
I2
sI4314
I3
sI4315
I0
sI4316
I4
sI4317
I4
sI4318
I0
sI4319
I0
sI4320
I2
sI4321
I0
sI4322
I4
sI4323
I0
sI4324
I0
sI4325
I0
sI4326
I0
sI4327
I4
sI4328
I0
sI4329
I5
sI4330
I2
sI4331
I1
sI4332
I0
sI4333
I3
sI4334
I2
sI4335
I4
sI4336
I3
sI4337
I2
sI4338
I0
sI4339
I5
sI4340
I4
sI4341
I4
sI4342
I0
sI4343
I2
sI4344
I0
sI4345
I3
sI4346
I0
sI4347
I0
sI4348
I0
sI4349
I2
sI4350
I2
sI4351
I0
sI4352
I4
sI4353
I4
sI4354
I0
sI4355
I4
sI4356
I4
sI4357
I4
sI4358
I0
sI4359
I0
sI4360
I0
sI4361
I0
sI4362
I0
sI4363
I3
sI4364
I0
sI4365
I0
sI4366
I0
sI4367
I5
sI4368
I3
sI4369
I0
sI4370
I0
sI4371
I0
sI4372
I3
sI4373
I4
sI4374
I3
sI4375
I4
sI4376
I3
sI4377
I0
sI4378
I0
sI4379
I0
sI4380
I0
sI4381
I3
sI4382
I0
sI4383
I0
sI4384
I0
sI4385
I4
sI4386
I0
sI4387
I5
sI4388
I0
sI4389
I0
sI4390
I4
sI4391
I0
sI4392
I0
sI4393
I1
sI4394
I5
sI4395
I0
sI4396
I0
sI4397
I0
sI4398
I0
sI4399
I2
sI4400
I2
sI4401
I4
sI4402
I2
sI4403
I1
sI4404
I4
sI4405
I4
sI4406
I0
sI4407
I3
sI4408
I3
sI4409
I4
sI4410
I0
sI4411
I2
sI4412
I3
sI4413
I4
sI4414
I2
sI4415
I3
sI4416
I6
sI4417
I1
sI4418
I6
sI4419
I2
sI4420
I2
sI4421
I2
sI4422
I0
sI4423
I1
sI4424
I2
sI4425
I3
sI4426
I1
sI4427
I2
sI4428
I1
sI4429
I6
sI4430
I3
sI4431
I3
sI4432
I3
sI4433
I4
sI4434
I2
sI4435
I2
sI4436
I6
sI4437
I7
sI4438
I2
sI4439
I2
sI4440
I0
sI4441
I7
sI4442
I2
sI4443
I1
sI4444
I2
sI4445
I4
sI4446
I1
sI4447
I2
sI4448
I2
sI4449
I0
sI4450
I1
sI4451
I2
sI4452
I1
sI4453
I1
sI4454
I3
sI4455
I0
sI4456
I0
sI4457
I2
sI4458
I3
sI4459
I3
sI4460
I2
sI4461
I2
sI4462
I2
sI4463
I3
sI4464
I0
sI4465
I0
sI4466
I3
sI4467
I4
sI4468
I4
sI4469
I0
sI4470
I3
sI4471
I0
sI4472
I1
sI4473
I2
sI4474
I1
sI4475
I3
sI4476
I6
sI4477
I0
sI4478
I1
sI4479
I5
sI4480
I1
sI4481
I3
sI4482
I2
sI4483
I1
sI4484
I0
sI4485
I0
sI4486
I0
sI4487
I0
sI4488
I4
sI4489
I0
sI4490
I0
sI4491
I0
sI4492
I0
sI4493
I0
sI4494
I4
sI4495
I0
sI4496
I4
sI4497
I0
sI4498
I0
sI4499
I0
sI4500
I1
sI4501
I0
sI4502
I0
sI4503
I4
sI4504
I1
sI4505
I4
sI4506
I2
sI4507
I0
sI4508
I0
sI4509
I4
sI4510
I0
sI4511
I2
sI4512
I2
sI4513
I4
sI4514
I3
sI4515
I0
sI4516
I0
sI4517
I4
sI4518
I3
sI4519
I3
sI4520
I0
sI4521
I3
sI4522
I2
sI4523
I4
sI4524
I0
sI4525
I0
sI4526
I0
sI4527
I0
sI4528
I0
sI4529
I0
sI4530
I0
sI4531
I0
sI4532
I0
sI4533
I4
sI4534
I4
sI4535
I0
sI4536
I0
sI4537
I0
sI4538
I0
sI4539
I3
sI4540
I0
sI4541
I0
sI4542
I0
sI4543
I1
sI4544
I0
sI4545
I2
sI4546
I0
sI4547
I0
sI4548
I1
sI4549
I0
sI4550
I1
sI4551
I6
sI4552
I6
sI4553
I0
sI4554
I2
sI4555
I0
sI4556
I0
sI4557
I2
sI4558
I2
sI4559
I0
sI4560
I2
sI4561
I3
sI4562
I3
sI4563
I0
sI4564
I3
sI4565
I0
sI4566
I0
sI4567
I1
sI4568
I4
sI4569
I4
sI4570
I0
sI4571
I0
sI4572
I0
sI4573
I0
sI4574
I2
sI4575
I3
sI4576
I0
sI4577
I0
sI4578
I0
sI4579
I0
sI4580
I0
sI4581
I0
sI4582
I1
sI4583
I3
sI4584
I1
sI4585
I0
sI4586
I0
sI4587
I4
sI4588
I4
sI4589
I4
sI4590
I4
sI4591
I4
sI4592
I0
sI4593
I4
sI4594
I4
sI4595
I0
sI4596
I4
sI4597
I4
sI4598
I3
sI4599
I4
sI4600
I2
sI4601
I4
sI4602
I4
sI4603
I1
sI4604
I0
sI4605
I0
sI4606
I0
sI4607
I0
sI4608
I0
sI4609
I0
sI4610
I1
sI4611
I3
sI4612
I0
sI4613
I0
sI4614
I0
sI4615
I0
sI4616
I0
sI4617
I4
sI4618
I0
sI4619
I4
sI4620
I0
sI4621
I0
sI4622
I5
sI4623
I2
sI4624
I0
sI4625
I0
sI4626
I4
sI4627
I0
sI4628
I0
sI4629
I0
sI4630
I4
sI4631
I0
sI4632
I0
sI4633
I4
sI4634
I3
sI4635
I3
sI4636
I4
sI4637
I0
sI4638
I4
sI4639
I4
sI4640
I0
sI4641
I4
sI4642
I4
sI4643
I1
sI4644
I3
sI4645
I0
sI4646
I4
sI4647
I1
sI4648
I4
sI4649
I4
sI4650
I3
sI4651
I4
sI4652
I0
sI4653
I6
sI4654
I0
sI4655
I0
sI4656
I0
sI4657
I0
sI4658
I0
sI4659
I0
sI4660
I0
sI4661
I3
sI4662
I0
sI4663
I0
sI4664
I3
sI4665
I0
sI4666
I4
sI4667
I0
sI4668
I0
sI4669
I0
sI4670
I0
sI4671
I0
sI4672
I2
sI4673
I2
sI4674
I2
sI4675
I0
sI4676
I3
sI4677
I2
sI4678
I0
sI4679
I0
sI4680
I3
sI4681
I0
sI4682
I4
sI4683
I2
sI4684
I3
sI4685
I4
sI4686
I0
sI4687
I0
sI4688
I0
sI4689
I4
sI4690
I0
sI4691
I4
sI4692
I0
sI4693
I0
sI4694
I0
sI4695
I3
sI4696
I3
sI4697
I3
sI4698
I3
sI4699
I3
sI4700
I0
sI4701
I0
sI4702
I0
sI4703
I3
sI4704
I0
sI4705
I0
sI4706
I0
sI4707
I2
sI4708
I3
sI4709
I2
sI4710
I2
sI4711
I0
sI4712
I4
sI4713
I0
sI4714
I0
sI4715
I1
sI4716
I3
sI4717
I4
sI4718
I4
sI4719
I4
sI4720
I4
sI4721
I2
sI4722
I0
sI4723
I2
sI4724
I4
sI4725
I0
sI4726
I0
sI4727
I4
sI4728
I0
sI4729
I0
sI4730
I0
sI4731
I0
sI4732
I0
sI4733
I4
sI4734
I3
sI4735
I3
sI4736
I0
sI4737
I3
sI4738
I4
sI4739
I3
sI4740
I3
sI4741
I4
sI4742
I4
sI4743
I0
sI4744
I0
sI4745
I0
sI4746
I2
sI4747
I0
sI4748
I3
sI4749
I0
sI4750
I4
sI4751
I3
sI4752
I3
sI4753
I3
sI4754
I0
sI4755
I0
sI4756
I0
sI4757
I0
sI4758
I1
sI4759
I0
sI4760
I0
sI4761
I0
sI4762
I0
sI4763
I3
sI4764
I3
sI4765
I4
sI4766
I3
sI4767
I0
sI4768
I0
sI4769
I4
sI4770
I0
sI4771
I0
sI4772
I5
sI4773
I0
sI4774
I3
sI4775
I0
sI4776
I0
sI4777
I3
sI4778
I3
sI4779
I3
sI4780
I5
sI4781
I3
sI4782
I0
sI4783
I3
sI4784
I0
sI4785
I0
sI4786
I3
sI4787
I3
sI4788
I4
sI4789
I2
sI4790
I4
sI4791
I2
sI4792
I3
sI4793
I2
sI4794
I1
sI4795
I2
sI4796
I4
sI4797
I0
sI4798
I1
sI4799
I3
sI4800
I3
sI4801
I1
sI4802
I7
sI4803
I1
sI4804
I3
sI4805
I4
sI4806
I6
sI4807
I6
sI4808
I2
sI4809
I2
sI4810
I3
sI4811
I2
sI4812
I2
sI4813
I1
sI4814
I1
sI4815
I2
sI4816
I3
sI4817
I0
sI4818
I1
sI4819
I4
sI4820
I0
sI4821
I1
sI4822
I1
sI4823
I1
sI4824
I1
sI4825
I2
sI4826
I1
sI4827
I0
sI4828
I1
sI4829
I4
sI4830
I4
sI4831
I3
sI4832
I3
sI4833
I0
sI4834
I3
sI4835
I1
sI4836
I2
sI4837
I6
sI4838
I5
sI4839
I4
sI4840
I0
sI4841
I1
sI4842
I2
sI4843
I1
sI4844
I1
sI4845
I0
sI4846
I4
sI4847
I2
sI4848
I0
sI4849
I4
sI4850
I2
sI4851
I0
sI4852
I1
sI4853
I0
sI4854
I1
sI4855
I3
sI4856
I1
sI4857
I1
sI4858
I2
sI4859
I3
sI4860
I0
sI4861
I0
sI4862
I4
sI4863
I1
sI4864
I0
sI4865
I4
sI4866
I2
sI4867
I1
sI4868
I4
sI4869
I1
sI4870
I0
sI4871
I3
sI4872
I0
sI4873
I3
sI4874
I1
sI4875
I4
sI4876
I0
sI4877
I2
sI4878
I3
sI4879
I4
sI4880
I4
sI4881
I1
sI4882
I2
sI4883
I3
sI4884
I0
sI4885
I4
sI4886
I0
sI4887
I2
sI4888
I0
sI4889
I0
sI4890
I0
sI4891
I6
sI4892
I0
sI4893
I0
sI4894
I0
sI4895
I0
sI4896
I0
sI4897
I1
sI4898
I0
sI4899
I0
sI4900
I1
sI4901
I0
sI4902
I0
sI4903
I5
sI4904
I0
sI4905
I0
sI4906
I0
sI4907
I0
sI4908
I0
sI4909
I2
sI4910
I6
sI4911
I6
sI4912
I2
sI4913
I6
sI4914
I2
sI4915
I0
sI4916
I2
sI4917
I2
sI4918
I3
sI4919
I1
sI4920
I0
sI4921
I0
sI4922
I0
sI4923
I0
sI4924
I3
sI4925
I0
sI4926
I0
sI4927
I0
sI4928
I2
sI4929
I0
sI4930
I0
sI4931
I0
sI4932
I4
sI4933
I0
sI4934
I0
sI4935
I0
sI4936
I0
sI4937
I3
sI4938
I0
sI4939
I0
sI4940
I4
sI4941
I3
sI4942
I0
sI4943
I0
sI4944
I0
sI4945
I0
sI4946
I0
sI4947
I0
sI4948
I0
sI4949
I0
sI4950
I4
sI4951
I1
sI4952
I0
sI4953
I4
sI4954
I0
sI4955
I3
sI4956
I0
sI4957
I5
sI4958
I4
sI4959
I4
sI4960
I4
sI4961
I4
sI4962
I4
sI4963
I4
sI4964
I4
sI4965
I0
sI4966
I4
sI4967
I0
sI4968
I4
sI4969
I4
sI4970
I0
sI4971
I0
sI4972
I0
sI4973
I4
sI4974
I0
sI4975
I0
sI4976
I0
sI4977
I0
sI4978
I0
sI4979
I0
sI4980
I0
sI4981
I0
sI4982
I0
sI4983
I3
sI4984
I5
sI4985
I5
sI4986
I0
sI4987
I0
sI4988
I0
sI4989
I4
sI4990
I4
sI4991
I0
sI4992
I0
sI4993
I4
sI4994
I1
sI4995
I0
sI4996
I0
sI4997
I0
sI4998
I0
sI4999
I4
sI5000
I4
sI5001
I0
sI5002
I1
sI5003
I4
sI5004
I0
sI5005
I4
sI5006
I0
sI5007
I5
sI5008
I0
sI5009
I0
sI5010
I4
sI5011
I6
sI5012
I0
sI5013
I0
sI5014
I0
sI5015
I0
sI5016
I0
sI5017
I0
sI5018
I0
sI5019
I0
sI5020
I0
sI5021
I0
sI5022
I0
sI5023
I0
sI5024
I0
sI5025
I0
sI5026
I4
sI5027
I3
sI5028
I2
sI5029
I1
sI5030
I0
sI5031
I0
sI5032
I0
sI5033
I0
sI5034
I4
sI5035
I0
sI5036
I0
sI5037
I4
sI5038
I0
sI5039
I4
sI5040
I0
sI5041
I0
sI5042
I0
sI5043
I0
sI5044
I0
sI5045
I0
sI5046
I0
sI5047
I3
sI5048
I0
sI5049
I2
sI5050
I0
sI5051
I0
sI5052
I0
sI5053
I0
sI5054
I4
sI5055
I0
sI5056
I2
sI5057
I0
sI5058
I0
sI5059
I0
sI5060
I2
sI5061
I0
sI5062
I0
sI5063
I3
sI5064
I3
sI5065
I2
sI5066
I3
sI5067
I0
sI5068
I0
sI5069
I1
sI5070
I4
sI5071
I0
sI5072
I4
sI5073
I0
sI5074
I2
sI5075
I0
sI5076
I4
sI5077
I4
sI5078
I0
sI5079
I3
sI5080
I0
sI5081
I3
sI5082
I2
sI5083
I0
sI5084
I0
sI5085
I2
sI5086
I0
sI5087
I3
sI5088
I2
sI5089
I3
sI5090
I0
sI5091
I4
sI5092
I4
sI5093
I4
sI5094
I4
sI5095
I4
sI5096
I0
sI5097
I3
sI5098
I0
sI5099
I0
sI5100
I4
sI5101
I5
sI5102
I0
sI5103
I4
sI5104
I0
sI5105
I3
sI5106
I0
sI5107
I0
sI5108
I0
sI5109
I0
sI5110
I0
sI5111
I1
sI5112
I0
sI5113
I5
sI5114
I3
sI5115
I3
sI5116
I4
sI5117
I0
sI5118
I4
sI5119
I0
sI5120
I0
sI5121
I0
sI5122
I2
sI5123
I2
sI5124
I0
sI5125
I0
sI5126
I4
sI5127
I2
sI5128
I0
sI5129
I2
sI5130
I3
sI5131
I4
sI5132
I0
sI5133
I1
sI5134
I4
sI5135
I4
sI5136
I0
sI5137
I0
sI5138
I0
sI5139
I0
sI5140
I0
sI5141
I3
sI5142
I4
sI5143
I2
sI5144
I0
sI5145
I2
sI5146
I3
sI5147
I3
sI5148
I5
sI5149
I0
sI5150
I0
sI5151
I0
sI5152
I4
sI5153
I2
sI5154
I0
sI5155
I5
sI5156
I2
sI5157
I0
sI5158
I0
sI5159
I2
sI5160
I2
sI5161
I0
sI5162
I2
sI5163
I2
sI5164
I0
sI5165
I0
sI5166
I0
sI5167
I2
sI5168
I2
sI5169
I0
sI5170
I0
sI5171
I0
sI5172
I0
sI5173
I2
sI5174
I2
sI5175
I2
sI5176
I2
sI5177
I3
sI5178
I4
sI5179
I3
sI5180
I0
sI5181
I0
sI5182
I0
sI5183
I0
sI5184
I0
sI5185
I1
sI5186
I2
sI5187
I2
sI5188
I1
sI5189
I1
sI5190
I4
sI5191
I6
sI5192
I2
sI5193
I1
sI5194
I3
sI5195
I1
sI5196
I1
sI5197
I1
sI5198
I1
sI5199
I0
sI5200
I3
sI5201
I2
sI5202
I1
sI5203
I1
sI5204
I0
sI5205
I3
sI5206
I6
sI5207
I6
sI5208
I3
sI5209
I1
sI5210
I1
sI5211
I3
sI5212
I1
sI5213
I2
sI5214
I0
sI5215
I4
sI5216
I7
sI5217
I2
sI5218
I9
sI5219
I1
sI5220
I0
sI5221
I2
sI5222
I1
sI5223
I2
sI5224
I3
sI5225
I1
sI5226
I1
sI5227
I1
sI5228
I3
sI5229
I1
sI5230
I1
sI5231
I0
sI5232
I1
sI5233
I0
sI5234
I1
sI5235
I3
sI5236
I4
sI5237
I0
sI5238
I1
sI5239
I2
sI5240
I5
sI5241
I7
sI5242
I5
sI5243
I0
sI5244
I2
sI5245
I2
sI5246
I0
sI5247
I0
sI5248
I6
sI5249
I0
sI5250
I3
sI5251
I0
sI5252
I0
sI5253
I0
sI5254
I0
sI5255
I0
sI5256
I1
sI5257
I4
sI5258
I2
sI5259
I0
sI5260
I4
sI5261
I4
sI5262
I4
sI5263
I2
sI5264
I0
sI5265
I2
sI5266
I3
sI5267
I0
sI5268
I0
sI5269
I4
sI5270
I3
sI5271
I3
sI5272
I0
sI5273
I4
sI5274
I0
sI5275
I4
sI5276
I3
sI5277
I2
sI5278
I5
sI5279
I2
sI5280
I1
sI5281
I6
sI5282
I0
sI5283
I2
sI5284
I0
sI5285
I0
sI5286
I2
sI5287
I0
sI5288
I0
sI5289
I0
sI5290
I4
sI5291
I3
sI5292
I3
sI5293
I5
sI5294
I1
sI5295
I8
sI5296
I4
sI5297
I0
sI5298
I0
sI5299
I0
sI5300
I0
sI5301
I0
sI5302
I3
sI5303
I0
sI5304
I0
sI5305
I5
sI5306
I0
sI5307
I0
sI5308
I2
sI5309
I0
sI5310
I0
sI5311
I3
sI5312
I0
sI5313
I1
sI5314
I0
sI5315
I0
sI5316
I0
sI5317
I2
sI5318
I2
sI5319
I6
sI5320
I3
sI5321
I2
sI5322
I1
sI5323
I4
sI5324
I1
sI5325
I6
sI5326
I2
sI5327
I1
sI5328
I3
sI5329
I2
sI5330
I2
sI5331
I2
sI5332
I0
sI5333
I1
sI5334
I1
sI5335
I2
sI5336
I1
sI5337
I0
sI5338
I0
sI5339
I2
sI5340
I2
sI5341
I0
sI5342
I0
sI5343
I1
sI5344
I3
sI5345
I1
sI5346
I3
sI5347
I0
sI5348
I0
sI5349
I0
sI5350
I0
sI5351
I2
sI5352
I2
sI5353
I1
sI5354
I3
sI5355
I4
sI5356
I3
sI5357
I0
sI5358
I0
sI5359
I0
sI5360
I0
sI5361
I0
sI5362
I0
sI5363
I0
sI5364
I0
sI5365
I0
sI5366
I0
sI5367
I0
sI5368
I0
sI5369
I0
sI5370
I1
sI5371
I0
sI5372
I0
sI5373
I0
sI5374
I0
sI5375
I3
sI5376
I4
sI5377
I0
sI5378
I4
sI5379
I0
sI5380
I4
sI5381
I4
sI5382
I4
sI5383
I4
sI5384
I4
sI5385
I5
sI5386
I4
sI5387
I4
sI5388
I4
sI5389
I4
sI5390
I3
sI5391
I3
sI5392
I4
sI5393
I4
sI5394
I0
sI5395
I0
sI5396
I0
sI5397
I0
sI5398
I0
sI5399
I0
sI5400
I3
sI5401
I0
sI5402
I0
sI5403
I0
sI5404
I0
sI5405
I0
sI5406
I0
sI5407
I4
sI5408
I0
sI5409
I0
sI5410
I0
sI5411
I0
sI5412
I3
sI5413
I0
sI5414
I0
sI5415
I0
sI5416
I3
sI5417
I2
sI5418
I0
sI5419
I0
sI5420
I0
sI5421
I0
sI5422
I0
sI5423
I3
sI5424
I0
sI5425
I0
sI5426
I3
sI5427
I3
sI5428
I0
sI5429
I1
sI5430
I0
sI5431
I3
sI5432
I0
sI5433
I0
sI5434
I0
sI5435
I0
sI5436
I4
sI5437
I0
sI5438
I1
sI5439
I4
sI5440
I5
sI5441
I4
sI5442
I0
sI5443
I4
sI5444
I6
sI5445
I4
sI5446
I3
sI5447
I0
sI5448
I4
sI5449
I4
sI5450
I5
sI5451
I4
sI5452
I0
sI5453
I0
sI5454
I4
sI5455
I0
sI5456
I0
sI5457
I0
sI5458
I3
sI5459
I0
sI5460
I0
sI5461
I0
sI5462
I3
sI5463
I0
sI5464
I4
sI5465
I0
sI5466
I3
sI5467
I0
sI5468
I2
sI5469
I0
sI5470
I0
sI5471
I4
sI5472
I4
sI5473
I4
sI5474
I3
sI5475
I0
sI5476
I0
sI5477
I4
sI5478
I0
sI5479
I0
sI5480
I2
sI5481
I0
sI5482
I4
sI5483
I2
sI5484
I0
sI5485
I0
sI5486
I3
sI5487
I0
sI5488
I0
sI5489
I0
sI5490
I0
sI5491
I0
sI5492
I0
sI5493
I0
sI5494
I4
sI5495
I0
sI5496
I2
sI5497
I4
sI5498
I0
sI5499
I0
sI5500
I0
sI5501
I0
sI5502
I0
sI5503
I2
sI5504
I7
sI5505
I3
sI5506
I2
sI5507
I3
sI5508
I4
sI5509
I0
sI5510
I0
sI5511
I0
sI5512
I3
sI5513
I3
sI5514
I0
sI5515
I7
sI5516
I1
sI5517
I0
sI5518
I0
sI5519
I0
sI5520
I2
sI5521
I0
sI5522
I3
sI5523
I0
sI5524
I2
sI5525
I3
sI5526
I4
sI5527
I1
sI5528
I0
sI5529
I4
sI5530
I3
sI5531
I3
sI5532
I4
sI5533
I3
sI5534
I4
sI5535
I4
sI5536
I0
sI5537
I4
sI5538
I3
sI5539
I0
sI5540
I4
sI5541
I3
sI5542
I0
sI5543
I0
sI5544
I3
sI5545
I0
sI5546
I0
sI5547
I0
sI5548
I0
sI5549
I3
sI5550
I3
sI5551
I0
sI5552
I0
sI5553
I0
sI5554
I3
sI5555
I2
sI5556
I0
sI5557
I4
sI5558
I0
sI5559
I0
sI5560
I0
sI5561
I2
sI5562
I2
sI5563
I2
sI5564
I0
sI5565
I0
sI5566
I4
sI5567
I0
sI5568
I3
sI5569
I2
sI5570
I7
sI5571
I3
sI5572
I0
sI5573
I4
sI5574
I0
sI5575
I3
sI5576
I0
sI5577
I0
sI5578
I0
sI5579
I0
sI5580
I3
sI5581
I3
sI5582
I0
sI5583
I0
sI5584
I4
sI5585
I2
sI5586
I0
sI5587
I2
sI5588
I0
sI5589
I5
sI5590
I0
sI5591
I0
sI5592
I0
sI5593
I0
sI5594
I3
sI5595
I4
sI5596
I1
sI5597
I0
sI5598
I0
sI5599
I0
sI5600
I2
sI5601
I2
sI5602
I2
sI5603
I0
sI5604
I3
sI5605
I0
sI5606
I2
sI5607
I3
sI5608
I5
sI5609
I0
sI5610
I4
sI5611
I3
sI5612
I2
sI5613
I2
sI5614
I3
sI5615
I2
sI5616
I4
sI5617
I4
sI5618
I0
sI5619
I0
sI5620
I0
sI5621
I0
sI5622
I3
sI5623
I0
sI5624
I2
sI5625
I3
sI5626
I2
sI5627
I2
sI5628
I1
sI5629
I1
sI5630
I1
sI5631
I2
sI5632
I0
sI5633
I6
sI5634
I1
sI5635
I0
sI5636
I1
sI5637
I0
sI5638
I3
sI5639
I2
sI5640
I2
sI5641
I1
sI5642
I1
sI5643
I1
sI5644
I7
sI5645
I1
sI5646
I6
sI5647
I1
sI5648
I1
sI5649
I1
sI5650
I1
sI5651
I2
sI5652
I6
sI5653
I1
sI5654
I2
sI5655
I3
sI5656
I6
sI5657
I0
sI5658
I1
sI5659
I0
sI5660
I4
sI5661
I4
sI5662
I1
sI5663
I2
sI5664
I3
sI5665
I4
sI5666
I1
sI5667
I2
sI5668
I2
sI5669
I0
sI5670
I0
sI5671
I1
sI5672
I1
sI5673
I2
sI5674
I1
sI5675
I4
sI5676
I3
sI5677
I1
sI5678
I2
sI5679
I3
sI5680
I3
sI5681
I0
sI5682
I0
sI5683
I3
sI5684
I4
sI5685
I3
sI5686
I4
sI5687
I4
sI5688
I0
sI5689
I0
sI5690
I3
sI5691
I1
sI5692
I1
sI5693
I1
sI5694
I1
sI5695
I2
sI5696
I2
sI5697
I0
sI5698
I1
sI5699
I1
sI5700
I1
sI5701
I1
sI5702
I1
sI5703
I2
sI5704
I3
sI5705
I2
sI5706
I4
sI5707
I0
sI5708
I0
sI5709
I0
sI5710
I4
sI5711
I4
sI5712
I0
sI5713
I2
sI5714
I0
sI5715
I0
sI5716
I0
sI5717
I1
sI5718
I4
sI5719
I0
sI5720
I1
sI5721
I2
sI5722
I0
sI5723
I3
sI5724
I0
sI5725
I0
sI5726
I2
sI5727
I0
sI5728
I0
sI5729
I4
sI5730
I3
sI5731
I3
sI5732
I3
sI5733
I0
sI5734
I3
sI5735
I1
sI5736
I0
sI5737
I0
sI5738
I0
sI5739
I0
sI5740
I0
sI5741
I0
sI5742
I1
sI5743
I0
sI5744
I1
sI5745
I1
sI5746
I0
sI5747
I0
sI5748
I1
sI5749
I0
sI5750
I0
sI5751
I1
sI5752
I2
sI5753
I0
sI5754
I1
sI5755
I3
sI5756
I1
sI5757
I0
sI5758
I0
sI5759
I0
sI5760
I2
sI5761
I3
sI5762
I4
sI5763
I3
sI5764
I2
sI5765
I1
sI5766
I2
sI5767
I2
sI5768
I2
sI5769
I2
sI5770
I0
sI5771
I1
sI5772
I3
sI5773
I2
sI5774
I2
sI5775
I2
sI5776
I0
sI5777
I3
sI5778
I0
sI5779
I0
sI5780
I0
sI5781
I0
sI5782
I2
sI5783
I2
sI5784
I1
sI5785
I2
sI5786
I0
sI5787
I3
sI5788
I0
sI5789
I2
sI5790
I3
sI5791
I0
sI5792
I0
sI5793
I0
sI5794
I0
sI5795
I3
sI5796
I3
sI5797
I2
sI5798
I3
sI5799
I4
sI5800
I0
sI5801
I0
sI5802
I0
sI5803
I1
sI5804
I0
sI5805
I0
sI5806
I0
sI5807
I5
sI5808
I1
sI5809
I0
sI5810
I0
sI5811
I4
sI5812
I0
sI5813
I0
sI5814
I4
sI5815
I4
sI5816
I0
sI5817
I0
sI5818
I4
sI5819
I0
sI5820
I0
sI5821
I4
sI5822
I0
sI5823
I0
sI5824
I4
sI5825
I5
sI5826
I4
sI5827
I3
sI5828
I0
sI5829
I3
sI5830
I4
sI5831
I4
sI5832
I0
sI5833
I4
sI5834
I0
sI5835
I0
sI5836
I0
sI5837
I0
sI5838
I0
sI5839
I0
sI5840
I0
sI5841
I0
sI5842
I0
sI5843
I1
sI5844
I0
sI5845
I0
sI5846
I0
sI5847
I0
sI5848
I0
sI5849
I0
sI5850
I4
sI5851
I4
sI5852
I0
sI5853
I0
sI5854
I4
sI5855
I4
sI5856
I0
sI5857
I0
sI5858
I0
sI5859
I0
sI5860
I0
sI5861
I0
sI5862
I0
sI5863
I0
sI5864
I0
sI5865
I0
sI5866
I3
sI5867
I0
sI5868
I4
sI5869
I0
sI5870
I0
sI5871
I0
sI5872
I4
sI5873
I0
sI5874
I4
sI5875
I2
sI5876
I0
sI5877
I0
sI5878
I4
sI5879
I1
sI5880
I2
sI5881
I0
sI5882
I4
sI5883
I0
sI5884
I0
sI5885
I4
sI5886
I0
sI5887
I0
sI5888
I0
sI5889
I1
sI5890
I2
sI5891
I0
sI5892
I0
sI5893
I0
sI5894
I0
sI5895
I4
sI5896
I4
sI5897
I0
sI5898
I1
sI5899
I0
sI5900
I4
sI5901
I0
sI5902
I5
sI5903
I0
sI5904
I0
sI5905
I4
sI5906
I4
sI5907
I4
sI5908
I0
sI5909
I4
sI5910
I4
sI5911
I1
sI5912
I0
sI5913
I0
sI5914
I0
sI5915
I0
sI5916
I0
sI5917
I0
sI5918
I0
sI5919
I0
sI5920
I0
sI5921
I0
sI5922
I0
sI5923
I0
sI5924
I0
sI5925
I0
sI5926
I0
sI5927
I0
sI5928
I0
sI5929
I0
sI5930
I0
sI5931
I4
sI5932
I0
sI5933
I0
sI5934
I2
sI5935
I3
sI5936
I3
sI5937
I3
sI5938
I2
sI5939
I0
sI5940
I0
sI5941
I2
sI5942
I1
sI5943
I0
sI5944
I0
sI5945
I0
sI5946
I4
sI5947
I3
sI5948
I1
sI5949
I0
sI5950
I0
sI5951
I0
sI5952
I0
sI5953
I0
sI5954
I0
sI5955
I3
sI5956
I0
sI5957
I4
sI5958
I0
sI5959
I0
sI5960
I2
sI5961
I0
sI5962
I0
sI5963
I0
sI5964
I0
sI5965
I0
sI5966
I3
sI5967
I2
sI5968
I0
sI5969
I2
sI5970
I0
sI5971
I0
sI5972
I0
sI5973
I0
sI5974
I0
sI5975
I0
sI5976
I0
sI5977
I4
sI5978
I0
sI5979
I0
sI5980
I3
sI5981
I4
sI5982
I0
sI5983
I2
sI5984
I0
sI5985
I0
sI5986
I3
sI5987
I2
sI5988
I0
sI5989
I3
sI5990
I2
sI5991
I3
sI5992
I0
sI5993
I4
sI5994
I0
sI5995
I3
sI5996
I0
sI5997
I0
sI5998
I3
sI5999
I4
sI6000
I0
sI6001
I3
sI6002
I3
sI6003
I3
sI6004
I3
sI6005
I3
sI6006
I2
sI6007
I2
sI6008
I3
sI6009
I0
sI6010
I2
sI6011
I3
sI6012
I3
sI6013
I4
sI6014
I0
sI6015
I0
sI6016
I4
sI6017
I4
sI6018
I4
sI6019
I4
sI6020
I3
sI6021
I3
sI6022
I3
sI6023
I3
sI6024
I4
sI6025
I4
sI6026
I3
sI6027
I3
sI6028
I4
sI6029
I0
sI6030
I3
sI6031
I0
sI6032
I4
sI6033
I0
sI6034
I0
sI6035
I0
sI6036
I2
sI6037
I1
sI6038
I0
sI6039
I0
sI6040
I0
sI6041
I0
sI6042
I3
sI6043
I0
sI6044
I4
sI6045
I0
sI6046
I4
sI6047
I0
sI6048
I0
sI6049
I0
sI6050
I0
sI6051
I0
sI6052
I0
sI6053
I0
sI6054
I0
sI6055
I0
sI6056
I3
sI6057
I4
sI6058
I0
sI6059
I2
sI6060
I0
sI6061
I0
sI6062
I4
sI6063
I2
sI6064
I1
sI6065
I0
sI6066
I3
sI6067
I0
sI6068
I4
sI6069
I4
sI6070
I4
sI6071
I3
sI6072
I0
sI6073
I0
sI6074
I4
sI6075
I0
sI6076
I0
sI6077
I0
sI6078
I0
sI6079
I0
sI6080
I0
sI6081
I0
sI6082
I4
sI6083
I2
sI6084
I3
sI6085
I0
sI6086
I3
sI6087
I4
sI6088
I2
sI6089
I3
sI6090
I0
sI6091
I0
sI6092
I0
sI6093
I0
sI6094
I2
sI6095
I2
sI6096
I0
sI6097
I0
sI6098
I0
sI6099
I0
sI6100
I0
sI6101
I2
sI6102
I2
sI6103
I2
sI6104
I0
sI6105
I3
sI6106
I3
sI6107
I3
sI6108
I0
sI6109
I0
sI6110
I0
sI6111
I0
sI6112
I4
sI6113
I0
sI6114
I3
sI6115
I3
sI6116
I3
sI6117
I2
sI6118
I4
sI6119
I4
sI6120
I2
sI6121
I2
sI6122
I3
sI6123
I3
sI6124
I3
sI6125
I2
sI6126
I0
sI6127
I2
sI6128
I2
sI6129
I0
sI6130
I1
sI6131
I2
sI6132
I0
sI6133
I0
sI6134
I3
sI6135
I0
sI6136
I3
sI6137
I0
sI6138
I1
sI6139
I6
sI6140
I6
sI6141
I1
sI6142
I0
sI6143
I6
sI6144
I1
sI6145
I1
sI6146
I1
sI6147
I1
sI6148
I1
sI6149
I1
sI6150
I1
sI6151
I3
sI6152
I2
sI6153
I2
sI6154
I1
sI6155
I3
sI6156
I1
sI6157
I1
sI6158
I2
sI6159
I6
sI6160
I2
sI6161
I2
sI6162
I2
sI6163
I2
sI6164
I1
sI6165
I2
sI6166
I0
sI6167
I7
sI6168
I1
sI6169
I1
sI6170
I3
sI6171
I1
sI6172
I4
sI6173
I1
sI6174
I1
sI6175
I2
sI6176
I6
sI6177
I2
sI6178
I1
sI6179
I1
sI6180
I0
sI6181
I4
sI6182
I7
sI6183
I1
sI6184
I1
sI6185
I3
sI6186
I1
sI6187
I1
sI6188
I1
sI6189
I1
sI6190
I4
sI6191
I1
sI6192
I4
sI6193
I4
sI6194
I2
sI6195
I0
sI6196
I3
sI6197
I1
sI6198
I0
sI6199
I2
sI6200
I2
sI6201
I3
sI6202
I1
sI6203
I1
sI6204
I2
sI6205
I3
sI6206
I3
sI6207
I2
sI6208
I0
sI6209
I0
sI6210
I6
sI6211
I2
sI6212
I4
sI6213
I2
sI6214
I3
sI6215
I4
sI6216
I1
sI6217
I2
sI6218
I0
sI6219
I4
sI6220
I4
sI6221
I4
sI6222
I0
sI6223
I1
sI6224
I2
sI6225
I0
sI6226
I1
sI6227
I0
sI6228
I0
sI6229
I0
sI6230
I1
sI6231
I2
sI6232
I0
sI6233
I1
sI6234
I1
sI6235
I1
sI6236
I1
sI6237
I2
sI6238
I2
sI6239
I0
sI6240
I0
sI6241
I4
sI6242
I1
sI6243
I2
sI6244
I1
sI6245
I0
sI6246
I0
sI6247
I0
sI6248
I4
sI6249
I4
sI6250
I0
sI6251
I1
sI6252
I4
sI6253
I1
sI6254
I0
sI6255
I3
sI6256
I2
sI6257
I0
sI6258
I0
sI6259
I0
sI6260
I1
sI6261
I7
sI6262
I1
sI6263
I1
sI6264
I0
sI6265
I0
sI6266
I0
sI6267
I3
sI6268
I3
sI6269
I0
sI6270
I4
sI6271
I3
sI6272
I1
sI6273
I1
sI6274
I0
sI6275
I0
sI6276
I0
sI6277
I0
sI6278
I0
sI6279
I3
sI6280
I2
sI6281
I0
sI6282
I0
sI6283
I3
sI6284
I1
sI6285
I1
sI6286
I0
sI6287
I3
sI6288
I2
sI6289
I2
sI6290
I0
sI6291
I0
sI6292
I6
sI6293
I0
sI6294
I0
sI6295
I0
sI6296
I0
sI6297
I0
sI6298
I0
sI6299
I4
sI6300
I0
sI6301
I0
sI6302
I4
sI6303
I5
sI6304
I0
sI6305
I2
sI6306
I2
sI6307
I0
sI6308
I0
sI6309
I0
sI6310
I0
sI6311
I1
sI6312
I0
sI6313
I0
sI6314
I6
sI6315
I0
sI6316
I3
sI6317
I2
sI6318
I0
sI6319
I0
sI6320
I0
sI6321
I0
sI6322
I2
sI6323
I0
sI6324
I0
sI6325
I1
sI6326
I0
sI6327
I1
sI6328
I3
sI6329
I1
sI6330
I3
sI6331
I2
sI6332
I0
sI6333
I3
sI6334
I2
sI6335
I3
sI6336
I1
sI6337
I1
sI6338
I1
sI6339
I1
sI6340
I1
sI6341
I2
sI6342
I1
sI6343
I2
sI6344
I0
sI6345
I1
sI6346
I2
sI6347
I0
sI6348
I0
sI6349
I0
sI6350
I1
sI6351
I0
sI6352
I1
sI6353
I1
sI6354
I3
sI6355
I0
sI6356
I0
sI6357
I0
sI6358
I0
sI6359
I4
sI6360
I0
sI6361
I0
sI6362
I0
sI6363
I0
sI6364
I0
sI6365
I0
sI6366
I1
sI6367
I2
sI6368
I2
sI6369
I1
sI6370
I1
sI6371
I0
sI6372
I2
sI6373
I2
sI6374
I2
sI6375
I4
sI6376
I0
sI6377
I0
sI6378
I0
sI6379
I0
sI6380
I0
sI6381
I3
sI6382
I0
sI6383
I0
sI6384
I0
sI6385
I0
sI6386
I0
sI6387
I2
sI6388
I0
sI6389
I0
sI6390
I0
sI6391
I0
sI6392
I0
sI6393
I3
sI6394
I0
sI6395
I1
sI6396
I0
sI6397
I0
sI6398
I1
sI6399
I0
sI6400
I0
sI6401
I0
sI6402
I4
sI6403
I4
sI6404
I0
sI6405
I4
sI6406
I4
sI6407
I4
sI6408
I2
sI6409
I4
sI6410
I3
sI6411
I1
sI6412
I0
sI6413
I0
sI6414
I4
sI6415
I0
sI6416
I4
sI6417
I0
sI6418
I4
sI6419
I4
sI6420
I4
sI6421
I0
sI6422
I4
sI6423
I4
sI6424
I0
sI6425
I3
sI6426
I4
sI6427
I4
sI6428
I0
sI6429
I3
sI6430
I3
sI6431
I3
sI6432
I0
sI6433
I0
sI6434
I0
sI6435
I0
sI6436
I0
sI6437
I0
sI6438
I0
sI6439
I0
sI6440
I4
sI6441
I4
sI6442
I4
sI6443
I0
sI6444
I0
sI6445
I4
sI6446
I4
sI6447
I0
sI6448
I0
sI6449
I0
sI6450
I0
sI6451
I0
sI6452
I0
sI6453
I0
sI6454
I0
sI6455
I3
sI6456
I0
sI6457
I0
sI6458
I0
sI6459
I1
sI6460
I5
sI6461
I5
sI6462
I0
sI6463
I4
sI6464
I0
sI6465
I4
sI6466
I0
sI6467
I4
sI6468
I3
sI6469
I0
sI6470
I1
sI6471
I5
sI6472
I0
sI6473
I0
sI6474
I4
sI6475
I0
sI6476
I4
sI6477
I4
sI6478
I0
sI6479
I0
sI6480
I0
sI6481
I0
sI6482
I0
sI6483
I0
sI6484
I0
sI6485
I4
sI6486
I1
sI6487
I5
sI6488
I0
sI6489
I0
sI6490
I4
sI6491
I0
sI6492
I4
sI6493
I4
sI6494
I4
sI6495
I4
sI6496
I3
sI6497
I0
sI6498
I4
sI6499
I4
sI6500
I0
sI6501
I0
sI6502
I0
sI6503
I0
sI6504
I0
sI6505
I0
sI6506
I0
sI6507
I0
sI6508
I0
sI6509
I0
sI6510
I0
sI6511
I0
sI6512
I0
sI6513
I4
sI6514
I0
sI6515
I0
sI6516
I4
sI6517
I3
sI6518
I4
sI6519
I1
sI6520
I0
sI6521
I0
sI6522
I0
sI6523
I0
sI6524
I0
sI6525
I0
sI6526
I0
sI6527
I0
sI6528
I0
sI6529
I0
sI6530
I0
sI6531
I0
sI6532
I0
sI6533
I0
sI6534
I0
sI6535
I2
sI6536
I2
sI6537
I3
sI6538
I2
sI6539
I0
sI6540
I0
sI6541
I0
sI6542
I2
sI6543
I2
sI6544
I0
sI6545
I4
sI6546
I0
sI6547
I1
sI6548
I4
sI6549
I1
sI6550
I0
sI6551
I0
sI6552
I0
sI6553
I3
sI6554
I0
sI6555
I0
sI6556
I0
sI6557
I2
sI6558
I0
sI6559
I0
sI6560
I0
sI6561
I4
sI6562
I4
sI6563
I4
sI6564
I4
sI6565
I4
sI6566
I2
sI6567
I3
sI6568
I0
sI6569
I3
sI6570
I0
sI6571
I0
sI6572
I0
sI6573
I0
sI6574
I0
sI6575
I2
sI6576
I0
sI6577
I0
sI6578
I3
sI6579
I3
sI6580
I3
sI6581
I4
sI6582
I3
sI6583
I0
sI6584
I0
sI6585
I0
sI6586
I0
sI6587
I0
sI6588
I0
sI6589
I0
sI6590
I4
sI6591
I3
sI6592
I3
sI6593
I3
sI6594
I2
sI6595
I0
sI6596
I2
sI6597
I0
sI6598
I3
sI6599
I2
sI6600
I3
sI6601
I3
sI6602
I0
sI6603
I4
sI6604
I0
sI6605
I4
sI6606
I0
sI6607
I4
sI6608
I0
sI6609
I1
sI6610
I1
sI6611
I2
sI6612
I0
sI6613
I0
sI6614
I3
sI6615
I1
sI6616
I2
sI6617
I3
sI6618
I3
sI6619
I0
sI6620
I2
sI6621
I0
sI6622
I0
sI6623
I3
sI6624
I3
sI6625
I3
sI6626
I3
sI6627
I3
sI6628
I0
sI6629
I4
sI6630
I4
sI6631
I4
sI6632
I4
sI6633
I4
sI6634
I4
sI6635
I3
sI6636
I0
sI6637
I0
sI6638
I0
sI6639
I4
sI6640
I3
sI6641
I0
sI6642
I0
sI6643
I0
sI6644
I0
sI6645
I0
sI6646
I0
sI6647
I0
sI6648
I4
sI6649
I0
sI6650
I0
sI6651
I0
sI6652
I0
sI6653
I4
sI6654
I0
sI6655
I0
sI6656
I0
sI6657
I0
sI6658
I0
sI6659
I3
sI6660
I0
sI6661
I0
sI6662
I0
sI6663
I2
sI6664
I0
sI6665
I0
sI6666
I2
sI6667
I3
sI6668
I0
sI6669
I3
sI6670
I2
sI6671
I3
sI6672
I3
sI6673
I4
sI6674
I0
sI6675
I3
sI6676
I2
sI6677
I3
sI6678
I3
sI6679
I0
sI6680
I3
sI6681
I1
sI6682
I0
sI6683
I0
sI6684
I0
sI6685
I0
sI6686
I3
sI6687
I0
sI6688
I3
sI6689
I2
sI6690
I0
sI6691
I0
sI6692
I0
sI6693
I0
sI6694
I0
sI6695
I0
sI6696
I1
sI6697
I1
sI6698
I5
sI6699
I3
sI6700
I0
sI6701
I0
sI6702
I4
sI6703
I0
sI6704
I3
sI6705
I2
sI6706
I2
sI6707
I0
sI6708
I4
sI6709
I0
sI6710
I3
sI6711
I3
sI6712
I3
sI6713
I0
sI6714
I0
sI6715
I2
sI6716
I0
sI6717
I4
sI6718
I0
sI6719
I2
sI6720
I2
sI6721
I3
sI6722
I2
sI6723
I2
sI6724
I3
sI6725
I3
sI6726
I2
sI6727
I2
sI6728
I0
sI6729
I0
sI6730
I0
sI6731
I0
sI6732
I0
sI6733
I0
sI6734
I3
sI6735
I3
sI6736
I3
sI6737
I0
sI6738
I2
sI6739
I2
sI6740
I3
sI6741
I3
sI6742
I3
sI6743
I3
sI6744
I3
sI6745
I0
sI6746
I2
sI6747
I4
sI6748
I2
sI6749
I2
sI6750
I4
sI6751
I2
sI6752
I2
sI6753
I0
sI6754
I3
sI6755
I0
sI6756
I0
sI6757
I2
sI6758
I2
sI6759
I0
sI6760
I0
sI6761
I2
sI6762
I0
sI6763
I0
sI6764
I3
sI6765
I3
sI6766
I1
sI6767
I1
sI6768
I2
sI6769
I3
sI6770
I6
sI6771
I1
sI6772
I1
sI6773
I8
sI6774
I1
sI6775
I8
sI6776
I2
sI6777
I1
sI6778
I0
sI6779
I1
sI6780
I1
sI6781
I1
sI6782
I6
sI6783
I1
sI6784
I4
sI6785
I1
sI6786
I1
sI6787
I2
sI6788
I1
sI6789
I1
sI6790
I1
sI6791
I2
sI6792
I1
sI6793
I0
sI6794
I1
sI6795
I1
sI6796
I2
sI6797
I1
sI6798
I4
sI6799
I4
sI6800
I0
sI6801
I1
sI6802
I2
sI6803
I0
sI6804
I3
sI6805
I0
sI6806
I5
sI6807
I0
sI6808
I1
sI6809
I1
sI6810
I1
sI6811
I1
sI6812
I1
sI6813
I1
sI6814
I1
sI6815
I0
sI6816
I1
sI6817
I4
sI6818
I1
sI6819
I1
sI6820
I2
sI6821
I0
sI6822
I2
sI6823
I3
sI6824
I1
sI6825
I0
sI6826
I0
sI6827
I1
sI6828
I2
sI6829
I1
sI6830
I1
sI6831
I2
sI6832
I2
sI6833
I0
sI6834
I6
sI6835
I6
sI6836
I1
sI6837
I1
sI6838
I3
sI6839
I1
sI6840
I3
sI6841
I0
sI6842
I1
sI6843
I1
sI6844
I1
sI6845
I1
sI6846
I3
sI6847
I0
sI6848
I3
sI6849
I2
sI6850
I0
sI6851
I0
sI6852
I3
sI6853
I7
sI6854
I2
sI6855
I1
sI6856
I4
sI6857
I2
sI6858
I7
sI6859
I0
sI6860
I0
sI6861
I2
sI6862
I1
sI6863
I1
sI6864
I1
sI6865
I0
sI6866
I1
sI6867
I0
sI6868
I0
sI6869
I1
sI6870
I1
sI6871
I1
sI6872
I1
sI6873
I6
sI6874
I2
sI6875
I1
sI6876
I1
sI6877
I1
sI6878
I0
sI6879
I1
sI6880
I1
sI6881
I0
sI6882
I0
sI6883
I0
sI6884
I1
sI6885
I0
sI6886
I1
sI6887
I1
sI6888
I0
sI6889
I4
sI6890
I4
sI6891
I2
sI6892
I3
sI6893
I3
sI6894
I3
sI6895
I5
sI6896
I9
sI6897
I0
sI6898
I1
sI6899
I0
sI6900
I3
sI6901
I0
sI6902
I0
sI6903
I1
sI6904
I1
sI6905
I1
sI6906
I0
sI6907
I4
sI6908
I0
sI6909
I0
sI6910
I0
sI6911
I0
sI6912
I4
sI6913
I0
sI6914
I1
sI6915
I0
sI6916
I0
sI6917
I4
sI6918
I0
sI6919
I4
sI6920
I1
sI6921
I0
sI6922
I5
sI6923
I0
sI6924
I3
sI6925
I2
sI6926
I4
sI6927
I0
sI6928
I1
sI6929
I0
sI6930
I0
sI6931
I2
sI6932
I4
sI6933
I0
sI6934
I3
sI6935
I4
sI6936
I3
sI6937
I3
sI6938
I0
sI6939
I0
sI6940
I0
sI6941
I0
sI6942
I0
sI6943
I6
sI6944
I0
sI6945
I0
sI6946
I0
sI6947
I0
sI6948
I0
sI6949
I4
sI6950
I0
sI6951
I0
sI6952
I0
sI6953
I0
sI6954
I1
sI6955
I0
sI6956
I0
sI6957
I3
sI6958
I0
sI6959
I3
sI6960
I0
sI6961
I2
sI6962
I0
sI6963
I0
sI6964
I4
sI6965
I4
sI6966
I3
sI6967
I0
sI6968
I0
sI6969
I0
sI6970
I0
sI6971
I0
sI6972
I0
sI6973
I0
sI6974
I0
sI6975
I6
sI6976
I0
sI6977
I0
sI6978
I1
sI6979
I0
sI6980
I0
sI6981
I0
sI6982
I1
sI6983
I3
sI6984
I1
sI6985
I2
sI6986
I3
sI6987
I1
sI6988
I0
sI6989
I0
sI6990
I1
sI6991
I0
sI6992
I3
sI6993
I2
sI6994
I2
sI6995
I2
sI6996
I1
sI6997
I2
sI6998
I3
sI6999
I2
sI7000
I0
sI7001
I2
sI7002
I6
sI7003
I1
sI7004
I1
sI7005
I1
sI7006
I3
sI7007
I0
sI7008
I1
sI7009
I3
sI7010
I3
sI7011
I3
sI7012
I3
sI7013
I6
sI7014
I1
sI7015
I0
sI7016
I0
sI7017
I3
sI7018
I5
sI7019
I2
sI7020
I3
sI7021
I0
sI7022
I0
sI7023
I0
sI7024
I1
sI7025
I4
sI7026
I0
sI7027
I1
sI7028
I0
sI7029
I1
sI7030
I0
sI7031
I4
sI7032
I0
sI7033
I2
sI7034
I0
sI7035
I0
sI7036
I0
sI7037
I0
sI7038
I0
sI7039
I3
sI7040
I3
sI7041
I4
sI7042
I1
sI7043
I0
sI7044
I1
sI7045
I0
sI7046
I1
sI7047
I0
sI7048
I3
sI7049
I1
sI7050
I4
sI7051
I0
sI7052
I0
sI7053
I3
sI7054
I1
sI7055
I0
sI7056
I0
sI7057
I0
sI7058
I0
sI7059
I1
sI7060
I0
sI7061
I0
sI7062
I0
sI7063
I0
sI7064
I0
sI7065
I3
sI7066
I0
sI7067
I0
sI7068
I5
sI7069
I5
sI7070
I1
sI7071
I0
sI7072
I3
sI7073
I0
sI7074
I0
sI7075
I0
sI7076
I0
sI7077
I2
sI7078
I4
sI7079
I3
sI7080
I0
sI7081
I3
sI7082
I5
sI7083
I0
sI7084
I0
sI7085
I4
sI7086
I4
sI7087
I3
sI7088
I3
sI7089
I0
sI7090
I4
sI7091
I4
sI7092
I4
sI7093
I3
sI7094
I4
sI7095
I3
sI7096
I4
sI7097
I0
sI7098
I0
sI7099
I0
sI7100
I4
sI7101
I0
sI7102
I0
sI7103
I0
sI7104
I0
sI7105
I0
sI7106
I0
sI7107
I0
sI7108
I0
sI7109
I0
sI7110
I2
sI7111
I2
sI7112
I1
sI7113
I0
sI7114
I0
sI7115
I0
sI7116
I0
sI7117
I0
sI7118
I0
sI7119
I0
sI7120
I0
sI7121
I0
sI7122
I0
sI7123
I4
sI7124
I4
sI7125
I0
sI7126
I4
sI7127
I0
sI7128
I0
sI7129
I0
sI7130
I0
sI7131
I0
sI7132
I0
sI7133
I0
sI7134
I0
sI7135
I0
sI7136
I0
sI7137
I3
sI7138
I0
sI7139
I0
sI7140
I0
sI7141
I0
sI7142
I2
sI7143
I0
sI7144
I0
sI7145
I3
sI7146
I3
sI7147
I1
sI7148
I0
sI7149
I3
sI7150
I0
sI7151
I0
sI7152
I0
sI7153
I4
sI7154
I4
sI7155
I4
sI7156
I1
sI7157
I4
sI7158
I4
sI7159
I4
sI7160
I0
sI7161
I0
sI7162
I0
sI7163
I0
sI7164
I0
sI7165
I0
sI7166
I2
sI7167
I4
sI7168
I2
sI7169
I5
sI7170
I0
sI7171
I4
sI7172
I4
sI7173
I4
sI7174
I3
sI7175
I4
sI7176
I0
sI7177
I3
sI7178
I0
sI7179
I0
sI7180
I0
sI7181
I4
sI7182
I4
sI7183
I4
sI7184
I4
sI7185
I6
sI7186
I0
sI7187
I3
sI7188
I0
sI7189
I0
sI7190
I0
sI7191
I4
sI7192
I4
sI7193
I0
sI7194
I4
sI7195
I5
sI7196
I4
sI7197
I0
sI7198
I0
sI7199
I0
sI7200
I0
sI7201
I0
sI7202
I0
sI7203
I0
sI7204
I0
sI7205
I0
sI7206
I0
sI7207
I1
sI7208
I1
sI7209
I1
sI7210
I0
sI7211
I0
sI7212
I0
sI7213
I1
sI7214
I0
sI7215
I0
sI7216
I0
sI7217
I0
sI7218
I0
sI7219
I0
sI7220
I0
sI7221
I4
sI7222
I4
sI7223
I4
sI7224
I4
sI7225
I0
sI7226
I2
sI7227
I3
sI7228
I2
sI7229
I0
sI7230
I0
sI7231
I3
sI7232
I0
sI7233
I3
sI7234
I0
sI7235
I2
sI7236
I0
sI7237
I0
sI7238
I0
sI7239
I2
sI7240
I0
sI7241
I0
sI7242
I0
sI7243
I0
sI7244
I0
sI7245
I0
sI7246
I4
sI7247
I4
sI7248
I4
sI7249
I3
sI7250
I4
sI7251
I5
sI7252
I5
sI7253
I5
sI7254
I2
sI7255
I4
sI7256
I0
sI7257
I0
sI7258
I4
sI7259
I2
sI7260
I4
sI7261
I2
sI7262
I2
sI7263
I4
sI7264
I3
sI7265
I0
sI7266
I0
sI7267
I4
sI7268
I0
sI7269
I0
sI7270
I3
sI7271
I0
sI7272
I0
sI7273
I2
sI7274
I3
sI7275
I6
sI7276
I0
sI7277
I0
sI7278
I0
sI7279
I0
sI7280
I0
sI7281
I3
sI7282
I0
sI7283
I2
sI7284
I3
sI7285
I3
sI7286
I0
sI7287
I4
sI7288
I0
sI7289
I0
sI7290
I4
sI7291
I0
sI7292
I0
sI7293
I4
sI7294
I1
sI7295
I0
sI7296
I2
sI7297
I2
sI7298
I0
sI7299
I3
sI7300
I0
sI7301
I0
sI7302
I4
sI7303
I0
sI7304
I2
sI7305
I2
sI7306
I2
sI7307
I0
sI7308
I0
sI7309
I3
sI7310
I2
sI7311
I0
sI7312
I0
sI7313
I3
sI7314
I3
sI7315
I4
sI7316
I3
sI7317
I3
sI7318
I3
sI7319
I0
sI7320
I2
sI7321
I1
sI7322
I2
sI7323
I1
sI7324
I2
sI7325
I2
sI7326
I2
sI7327
I3
sI7328
I3
sI7329
I4
sI7330
I4
sI7331
I0
sI7332
I2
sI7333
I0
sI7334
I4
sI7335
I4
sI7336
I2
sI7337
I4
sI7338
I4
sI7339
I3
sI7340
I2
sI7341
I4
sI7342
I0
sI7343
I3
sI7344
I3
sI7345
I1
sI7346
I3
sI7347
I0
sI7348
I3
sI7349
I0
sI7350
I0
sI7351
I4
sI7352
I0
sI7353
I3
sI7354
I4
sI7355
I0
sI7356
I0
sI7357
I4
sI7358
I4
sI7359
I0
sI7360
I0
sI7361
I0
sI7362
I0
sI7363
I0
sI7364
I0
sI7365
I0
sI7366
I0
sI7367
I0
sI7368
I0
sI7369
I0
sI7370
I0
sI7371
I3
sI7372
I1
sI7373
I1
sI7374
I3
sI7375
I0
sI7376
I0
sI7377
I4
sI7378
I5
sI7379
I1
sI7380
I0
sI7381
I0
sI7382
I0
sI7383
I0
sI7384
I0
sI7385
I3
sI7386
I2
sI7387
I0
sI7388
I2
sI7389
I0
sI7390
I0
sI7391
I0
sI7392
I0
sI7393
I2
sI7394
I0
sI7395
I0
sI7396
I3
sI7397
I0
sI7398
I0
sI7399
I0
sI7400
I1
sI7401
I0
sI7402
I0
sI7403
I0
sI7404
I0
sI7405
I0
sI7406
I0
sI7407
I4
sI7408
I2
sI7409
I0
sI7410
I0
sI7411
I0
sI7412
I0
sI7413
I0
sI7414
I0
sI7415
I0
sI7416
I0
sI7417
I0
sI7418
I3
sI7419
I1
sI7420
I0
sI7421
I5
sI7422
I0
sI7423
I3
sI7424
I2
sI7425
I2
sI7426
I2
sI7427
I2
sI7428
I3
sI7429
I2
sI7430
I0
sI7431
I0
sI7432
I3
sI7433
I1
sI7434
I3
sI7435
I0
sI7436
I0
sI7437
I3
sI7438
I0
sI7439
I3
sI7440
I0
sI7441
I0
sI7442
I2
sI7443
I0
sI7444
I0
sI7445
I3
sI7446
I2
sI7447
I2
sI7448
I2
sI7449
I0
sI7450
I1
sI7451
I2
sI7452
I2
sI7453
I0
sI7454
I0
sI7455
I0
sI7456
I0
sI7457
I2
sI7458
I1
sI7459
I0
sI7460
I0
sI7461
I2
sI7462
I1
sI7463
I2
sI7464
I0
sI7465
I0
sI7466
I0
sI7467
I0
sI7468
I2
sI7469
I3
sI7470
I2
sI7471
I0
sI7472
I0
sI7473
I0
sI7474
I2
sI7475
I1
sI7476
I0
sI7477
I4
sI7478
I0
sI7479
I0
sI7480
I0
sI7481
I0
sI7482
I0
sI7483
I3
sI7484
I0
sI7485
I3
sI7486
I0
sI7487
I3
sI7488
I3
sI7489
I2
sI7490
I4
sI7491
I3
sI7492
I3
sI7493
I0
sI7494
I3
sI7495
I3
sI7496
I2
sI7497
I3
sI7498
I3
sI7499
I0
sI7500
I4
sI7501
I2
sI7502
I4
sI7503
I3
sI7504
I4
sI7505
I0
sI7506
I3
sI7507
I2
sI7508
I0
sI7509
I0
sI7510
I0
sI7511
I4
sI7512
I2
sI7513
I4
sI7514
I4
sI7515
I2
sI7516
I2
sI7517
I0
sI7518
I0
sI7519
I1
sI7520
I1
sI7521
I3
sI7522
I2
sI7523
I2
sI7524
I3
sI7525
I0
sI7526
I1
sI7527
I1
sI7528
I1
sI7529
I1
sI7530
I0
sI7531
I6
sI7532
I3
sI7533
I3
sI7534
I1
sI7535
I1
sI7536
I4
sI7537
I2
sI7538
I1
sI7539
I1
sI7540
I1
sI7541
I1
sI7542
I1
sI7543
I2
sI7544
I1
sI7545
I0
sI7546
I3
sI7547
I2
sI7548
I2
sI7549
I1
sI7550
I3
sI7551
I6
sI7552
I1
sI7553
I2
sI7554
I1
sI7555
I2
sI7556
I0
sI7557
I2
sI7558
I6
sI7559
I1
sI7560
I3
sI7561
I1
sI7562
I1
sI7563
I7
sI7564
I7
sI7565
I3
sI7566
I1
sI7567
I1
sI7568
I1
sI7569
I1
sI7570
I6
sI7571
I3
sI7572
I1
sI7573
I1
sI7574
I1
sI7575
I2
sI7576
I1
sI7577
I1
sI7578
I0
sI7579
I5
sI7580
I5
sI7581
I1
sI7582
I4
sI7583
I1
sI7584
I1
sI7585
I0
sI7586
I1
sI7587
I0
sI7588
I3
sI7589
I2
sI7590
I2
sI7591
I2
sI7592
I1
sI7593
I0
sI7594
I0
sI7595
I1
sI7596
I1
sI7597
I2
sI7598
I1
sI7599
I3
sI7600
I2
sI7601
I1
sI7602
I1
sI7603
I1
sI7604
I6
sI7605
I0
sI7606
I5
sI7607
I0
sI7608
I1
sI7609
I3
sI7610
I0
sI7611
I4
sI7612
I2
sI7613
I2
sI7614
I4
sI7615
I3
sI7616
I0
sI7617
I0
sI7618
I6
sI7619
I1
sI7620
I1
sI7621
I1
sI7622
I0
sI7623
I0
sI7624
I3
sI7625
I9
sI7626
I0
sI7627
I1
sI7628
I1
sI7629
I0
sI7630
I3
sI7631
I1
sI7632
I1
sI7633
I6
sI7634
I1
sI7635
I0
sI7636
I0
sI7637
I1
sI7638
I2
sI7639
I2
sI7640
I3
sI7641
I1
sI7642
I3
sI7643
I1
sI7644
I1
sI7645
I0
sI7646
I0
sI7647
I0
sI7648
I0
sI7649
I1
sI7650
I3
sI7651
I0
sI7652
I5
sI7653
I0
sI7654
I0
sI7655
I0
sI7656
I1
sI7657
I0
sI7658
I4
sI7659
I1
sI7660
I0
sI7661
I0
sI7662
I0
sI7663
I1
sI7664
I0
sI7665
I4
sI7666
I0
sI7667
I0
sI7668
I2
sI7669
I0
sI7670
I1
sI7671
I0
sI7672
I2
sI7673
I4
sI7674
I4
sI7675
I0
sI7676
I1
sI7677
I5
sI7678
I2
sI7679
I3
sI7680
I6
sI7681
I3
sI7682
I0
sI7683
I3
sI7684
I0
sI7685
I0
sI7686
I3
sI7687
I0
sI7688
I0
sI7689
I0
sI7690
I3
sI7691
I4
sI7692
I1
sI7693
I1
sI7694
I0
sI7695
I0
sI7696
I2
sI7697
I0
sI7698
I0
sI7699
I0
sI7700
I0
sI7701
I0
sI7702
I0
sI7703
I0
sI7704
I0
sI7705
I0
sI7706
I1
sI7707
I1
sI7708
I1
sI7709
I3
sI7710
I3
sI7711
I0
sI7712
I0
sI7713
I0
sI7714
I0
sI7715
I1
sI7716
I1
sI7717
I0
sI7718
I6
sI7719
I0
sI7720
I0
sI7721
I0
sI7722
I0
sI7723
I1
sI7724
I6
sI7725
I0
sI7726
I2
sI7727
I1
sI7728
I3
sI7729
I6
sI7730
I1
sI7731
I0
sI7732
I1
sI7733
I1
sI7734
I0
sI7735
I0
sI7736
I1
sI7737
I2
sI7738
I3
sI7739
I2
sI7740
I2
sI7741
I2
sI7742
I2
sI7743
I2
sI7744
I7
sI7745
I0
sI7746
I2
sI7747
I2
sI7748
I1
sI7749
I1
sI7750
I1
sI7751
I1
sI7752
I1
sI7753
I1
sI7754
I1
sI7755
I0
sI7756
I1
sI7757
I0
sI7758
I2
sI7759
I2
sI7760
I2
sI7761
I1
sI7762
I1
sI7763
I2
sI7764
I2
sI7765
I4
sI7766
I5
sI7767
I1
sI7768
I3
sI7769
I0
sI7770
I3
sI7771
I0
sI7772
I0
sI7773
I2
sI7774
I1
sI7775
I0
sI7776
I3
sI7777
I1
sI7778
I6
sI7779
I1
sI7780
I4
sI7781
I1
sI7782
I4
sI7783
I0
sI7784
I3
sI7785
I0
sI7786
I6
sI7787
I3
sI7788
I6
sI7789
I6
sI7790
I1
sI7791
I0
sI7792
I3
sI7793
I0
sI7794
I1
sI7795
I4
sI7796
I4
sI7797
I0
sI7798
I0
sI7799
I0
sI7800
I3
sI7801
I0
sI7802
I0
sI7803
I0
sI7804
I0
sI7805
I0
sI7806
I1
sI7807
I0
sI7808
I0
sI7809
I0
sI7810
I2
sI7811
I0
sI7812
I0
sI7813
I0
sI7814
I1
sI7815
I0
sI7816
I0
sI7817
I3
sI7818
I0
sI7819
I0
sI7820
I0
sI7821
I2
sI7822
I1
sI7823
I0
sI7824
I1
sI7825
I4
sI7826
I4
sI7827
I4
sI7828
I0
sI7829
I4
sI7830
I4
sI7831
I2
sI7832
I4
sI7833
I2
sI7834
I0
sI7835
I0
sI7836
I0
sI7837
I4
sI7838
I4
sI7839
I3
sI7840
I4
sI7841
I0
sI7842
I4
sI7843
I4
sI7844
I0
sI7845
I4
sI7846
I4
sI7847
I0
sI7848
I0
sI7849
I0
sI7850
I4
sI7851
I0
sI7852
I0
sI7853
I0
sI7854
I1
sI7855
I4
sI7856
I4
sI7857
I0
sI7858
I0
sI7859
I0
sI7860
I0
sI7861
I0
sI7862
I0
sI7863
I1
sI7864
I3
sI7865
I3
sI7866
I0
sI7867
I0
sI7868
I0
sI7869
I0
sI7870
I0
sI7871
I0
sI7872
I0
sI7873
I0
sI7874
I0
sI7875
I0
sI7876
I0
sI7877
I0
sI7878
I0
sI7879
I0
sI7880
I0
sI7881
I0
sI7882
I0
sI7883
I4
sI7884
I0
sI7885
I0
sI7886
I0
sI7887
I0
sI7888
I0
sI7889
I0
sI7890
I4
sI7891
I0
sI7892
I0
sI7893
I0
sI7894
I0
sI7895
I0
sI7896
I0
sI7897
I0
sI7898
I0
sI7899
I0
sI7900
I0
sI7901
I1
sI7902
I3
sI7903
I0
sI7904
I0
sI7905
I0
sI7906
I3
sI7907
I0
sI7908
I0
sI7909
I0
sI7910
I0
sI7911
I3
sI7912
I0
sI7913
I3
sI7914
I4
sI7915
I4
sI7916
I0
sI7917
I0
sI7918
I4
sI7919
I3
sI7920
I0
sI7921
I0
sI7922
I0
sI7923
I0
sI7924
I0
sI7925
I0
sI7926
I4
sI7927
I4
sI7928
I4
sI7929
I0
sI7930
I1
sI7931
I0
sI7932
I0
sI7933
I4
sI7934
I0
sI7935
I0
sI7936
I4
sI7937
I0
sI7938
I2
sI7939
I1
sI7940
I0
sI7941
I0
sI7942
I6
sI7943
I0
sI7944
I4
sI7945
I4
sI7946
I1
sI7947
I0
sI7948
I4
sI7949
I4
sI7950
I0
sI7951
I1
sI7952
I0
sI7953
I0
sI7954
I4
sI7955
I0
sI7956
I4
sI7957
I0
sI7958
I4
sI7959
I0
sI7960
I4
sI7961
I0
sI7962
I0
sI7963
I1
sI7964
I4
sI7965
I0
sI7966
I4
sI7967
I5
sI7968
I0
sI7969
I1
sI7970
I1
sI7971
I4
sI7972
I0
sI7973
I0
sI7974
I0
sI7975
I0
sI7976
I0
sI7977
I0
sI7978
I0
sI7979
I0
sI7980
I4
sI7981
I0
sI7982
I0
sI7983
I0
sI7984
I0
sI7985
I0
sI7986
I0
sI7987
I0
sI7988
I2
sI7989
I1
sI7990
I3
sI7991
I1
sI7992
I2
sI7993
I0
sI7994
I0
sI7995
I1
sI7996
I1
sI7997
I3
sI7998
I0
sI7999
I1
sI8000
I4
sI8001
I4
sI8002
I0
sI8003
I1
sI8004
I0
sI8005
I2
sI8006
I4
sI8007
I4
sI8008
I0
sI8009
I0
sI8010
I4
sI8011
I4
sI8012
I4
sI8013
I4
sI8014
I0
sI8015
I0
sI8016
I4
sI8017
I0
sI8018
I1
sI8019
I2
sI8020
I0
sI8021
I0
sI8022
I0
sI8023
I0
sI8024
I2
sI8025
I3
sI8026
I2
sI8027
I3
sI8028
I2
sI8029
I0
sI8030
I4
sI8031
I0
sI8032
I1
sI8033
I0
sI8034
I2
sI8035
I3
sI8036
I1
sI8037
I0
sI8038
I1
sI8039
I0
sI8040
I0
sI8041
I0
sI8042
I0
sI8043
I0
sI8044
I0
sI8045
I4
sI8046
I0
sI8047
I0
sI8048
I0
sI8049
I0
sI8050
I1
sI8051
I4
sI8052
I0
sI8053
I4
sI8054
I5
sI8055
I2
sI8056
I5
sI8057
I2
sI8058
I5
sI8059
I4
sI8060
I0
sI8061
I1
sI8062
I4
sI8063
I3
sI8064
I4
sI8065
I2
sI8066
I4
sI8067
I2
sI8068
I2
sI8069
I1
sI8070
I2
sI8071
I1
sI8072
I0
sI8073
I3
sI8074
I1
sI8075
I4
sI8076
I2
sI8077
I0
sI8078
I3
sI8079
I0
sI8080
I3
sI8081
I3
sI8082
I3
sI8083
I0
sI8084
I2
sI8085
I4
sI8086
I3
sI8087
I3
sI8088
I0
sI8089
I0
sI8090
I3
sI8091
I0
sI8092
I3
sI8093
I2
sI8094
I4
sI8095
I4
sI8096
I0
sI8097
I0
sI8098
I0
sI8099
I4
sI8100
I3
sI8101
I3
sI8102
I3
sI8103
I3
sI8104
I1
sI8105
I5
sI8106
I0
sI8107
I4
sI8108
I3
sI8109
I1
sI8110
I4
sI8111
I0
sI8112
I0
sI8113
I0
sI8114
I0
sI8115
I3
sI8116
I3
sI8117
I2
sI8118
I4
sI8119
I3
sI8120
I2
sI8121
I0
sI8122
I2
sI8123
I0
sI8124
I0
sI8125
I0
sI8126
I0
sI8127
I0
sI8128
I0
sI8129
I0
sI8130
I0
sI8131
I3
sI8132
I3
sI8133
I3
sI8134
I0
sI8135
I2
sI8136
I0
sI8137
I3
sI8138
I3
sI8139
I3
sI8140
I3
sI8141
I2
sI8142
I3
sI8143
I3
sI8144
I4
sI8145
I2
sI8146
I3
sI8147
I3
sI8148
I0
sI8149
I2
sI8150
I4
sI8151
I4
sI8152
I3
sI8153
I4
sI8154
I2
sI8155
I4
sI8156
I4
sI8157
I3
sI8158
I0
sI8159
I0
sI8160
I0
sI8161
I0
sI8162
I0
sI8163
I0
sI8164
I3
sI8165
I4
sI8166
I2
sI8167
I2
sI8168
I1
sI8169
I0
sI8170
I0
sI8171
I0
sI8172
I0
sI8173
I4
sI8174
I0
sI8175
I0
sI8176
I0
sI8177
I0
sI8178
I0
sI8179
I3
sI8180
I3
sI8181
I3
sI8182
I1
sI8183
I3
sI8184
I1
sI8185
I0
sI8186
I3
sI8187
I0
sI8188
I4
sI8189
I3
sI8190
I1
sI8191
I0
sI8192
I0
sI8193
I2
sI8194
I2
sI8195
I5
sI8196
I4
sI8197
I3
sI8198
I1
sI8199
I1
sI8200
I1
sI8201
I4
sI8202
I0
sI8203
I0
sI8204
I2
sI8205
I3
sI8206
I0
sI8207
I3
sI8208
I2
sI8209
I4
sI8210
I0
sI8211
I0
sI8212
I4
sI8213
I0
sI8214
I0
sI8215
I0
sI8216
I2
sI8217
I2
sI8218
I4
sI8219
I3
sI8220
I0
sI8221
I0
sI8222
I0
sI8223
I2
sI8224
I2
sI8225
I2
sI8226
I3
sI8227
I2
sI8228
I4
sI8229
I1
sI8230
I1
sI8231
I2
sI8232
I0
sI8233
I0
sI8234
I0
sI8235
I3
sI8236
I0
sI8237
I0
sI8238
I0
sI8239
I0
sI8240
I0
sI8241
I0
sI8242
I0
sI8243
I0
sI8244
I2
sI8245
I0
sI8246
I4
sI8247
I0
sI8248
I4
sI8249
I0
sI8250
I0
sI8251
I0
sI8252
I0
sI8253
I0
sI8254
I0
sI8255
I0
sI8256
I0
sI8257
I5
sI8258
I3
sI8259
I0
sI8260
I0
sI8261
I2
sI8262
I2
sI8263
I3
sI8264
I3
sI8265
I0
sI8266
I0
sI8267
I3
sI8268
I0
sI8269
I0
sI8270
I0
sI8271
I3
sI8272
I3
sI8273
I3
sI8274
I0
sI8275
I4
sI8276
I5
sI8277
I0
sI8278
I0
sI8279
I0
sI8280
I0
sI8281
I3
sI8282
I0
sI8283
I5
sI8284
I0
sI8285
I0
sI8286
I0
sI8287
I0
sI8288
I2
sI8289
I0
sI8290
I0
sI8291
I0
sI8292
I3
sI8293
I0
sI8294
I0
sI8295
I2
sI8296
I0
sI8297
I0
sI8298
I0
sI8299
I0
sI8300
I0
sI8301
I0
sI8302
I0
sI8303
I0
sI8304
I0
sI8305
I0
sI8306
I0
sI8307
I0
sI8308
I0
sI8309
I2
sI8310
I2
sI8311
I0
sI8312
I3
sI8313
I1
sI8314
I0
sI8315
I3
sI8316
I0
sI8317
I1
sI8318
I3
sI8319
I2
sI8320
I2
sI8321
I2
sI8322
I3
sI8323
I2
sI8324
I3
sI8325
I3
sI8326
I0
sI8327
I0
sI8328
I0
sI8329
I2
sI8330
I0
sI8331
I1
sI8332
I2
sI8333
I0
sI8334
I0
sI8335
I5
sI8336
I3
sI8337
I0
sI8338
I2
sI8339
I4
sI8340
I0
sI8341
I0
sI8342
I3
sI8343
I3
sI8344
I3
sI8345
I2
sI8346
I0
sI8347
I2
sI8348
I2
sI8349
I4
sI8350
I2
sI8351
I4
sI8352
I4
sI8353
I0
sI8354
I3
sI8355
I3
sI8356
I1
sI8357
I2
sI8358
I0
sI8359
I0
sI8360
I0
sI8361
I0
sI8362
I2
sI8363
I0
sI8364
I3
sI8365
I4
sI8366
I0
sI8367
I4
sI8368
I2
sI8369
I2
sI8370
I3
sI8371
I0
sI8372
I0
sI8373
I3
sI8374
I3
sI8375
I3
sI8376
I3
sI8377
I2
sI8378
I0
sI8379
I3
sI8380
I0
sI8381
I2
sI8382
I0
sI8383
I3
sI8384
I3
sI8385
I0
sI8386
I1
sI8387
I3
sI8388
I1
sI8389
I1
sI8390
I0
sI8391
I1
sI8392
I3
sI8393
I3
sI8394
I1
sI8395
I0
sI8396
I1
sI8397
I1
sI8398
I1
sI8399
I3
sI8400
I1
sI8401
I1
sI8402
I1
sI8403
I1
sI8404
I2
sI8405
I9
sI8406
I1
sI8407
I7
sI8408
I1
sI8409
I1
sI8410
I2
sI8411
I2
sI8412
I1
sI8413
I1
sI8414
I1
sI8415
I1
sI8416
I1
sI8417
I1
sI8418
I2
sI8419
I1
sI8420
I1
sI8421
I3
sI8422
I2
sI8423
I3
sI8424
I2
sI8425
I3
sI8426
I2
sI8427
I1
sI8428
I2
sI8429
I1
sI8430
I0
sI8431
I3
sI8432
I1
sI8433
I2
sI8434
I6
sI8435
I0
sI8436
I3
sI8437
I0
sI8438
I0
sI8439
I2
sI8440
I1
sI8441
I1
sI8442
I1
sI8443
I1
sI8444
I1
sI8445
I1
sI8446
I1
sI8447
I1
sI8448
I1
sI8449
I1
sI8450
I1
sI8451
I5
sI8452
I3
sI8453
I1
sI8454
I1
sI8455
I0
sI8456
I1
sI8457
I1
sI8458
I1
sI8459
I0
sI8460
I0
sI8461
I1
sI8462
I1
sI8463
I1
sI8464
I1
sI8465
I1
sI8466
I1
sI8467
I1
sI8468
I3
sI8469
I3
sI8470
I2
sI8471
I4
sI8472
I6
sI8473
I1
sI8474
I2
sI8475
I2
sI8476
I0
sI8477
I0
sI8478
I3
sI8479
I1
sI8480
I1
sI8481
I0
sI8482
I1
sI8483
I4
sI8484
I0
sI8485
I1
sI8486
I0
sI8487
I7
sI8488
I0
sI8489
I6
sI8490
I3
sI8491
I1
sI8492
I3
sI8493
I0
sI8494
I1
sI8495
I0
sI8496
I1
sI8497
I0
sI8498
I1
sI8499
I0
sI8500
I1
sI8501
I1
sI8502
I1
sI8503
I1
sI8504
I1
sI8505
I2
sI8506
I1
sI8507
I2
sI8508
I1
sI8509
I1
sI8510
I1
sI8511
I1
sI8512
I1
sI8513
I0
sI8514
I0
sI8515
I1
sI8516
I6
sI8517
I1
sI8518
I1
sI8519
I1
sI8520
I1
sI8521
I3
sI8522
I1
sI8523
I1
sI8524
I6
sI8525
I1
sI8526
I2
sI8527
I0
sI8528
I2
sI8529
I2
sI8530
I6
sI8531
I2
sI8532
I0
sI8533
I1
sI8534
I1
sI8535
I1
sI8536
I1
sI8537
I1
sI8538
I0
sI8539
I0
sI8540
I1
sI8541
I1
sI8542
I0
sI8543
I4
sI8544
I4
sI8545
I2
sI8546
I4
sI8547
I4
sI8548
I0
sI8549
I1
sI8550
I7
sI8551
I0
sI8552
I4
sI8553
I0
sI8554
I3
sI8555
I1
sI8556
I0
sI8557
I1
sI8558
I4
sI8559
I4
sI8560
I4
sI8561
I0
sI8562
I4
sI8563
I3
sI8564
I2
sI8565
I0
sI8566
I0
sI8567
I2
sI8568
I3
sI8569
I0
sI8570
I3
sI8571
I3
sI8572
I2
sI8573
I4
sI8574
I4
sI8575
I4
sI8576
I4
sI8577
I0
sI8578
I5
sI8579
I2
sI8580
I2
sI8581
I2
sI8582
I1
sI8583
I1
sI8584
I0
sI8585
I0
sI8586
I7
sI8587
I5
sI8588
I4
sI8589
I2
sI8590
I2
sI8591
I2
sI8592
I3
sI8593
I3
sI8594
I4
sI8595
I1
sI8596
I0
sI8597
I2
sI8598
I0
sI8599
I3
sI8600
I0
sI8601
I0
sI8602
I6
sI8603
I3
sI8604
I2
sI8605
I0
sI8606
I1
sI8607
I5
sI8608
I6
sI8609
I1
sI8610
I1
sI8611
I1
sI8612
I0
sI8613
I0
sI8614
I0
sI8615
I4
sI8616
I0
sI8617
I0
sI8618
I0
sI8619
I0
sI8620
I0
sI8621
I0
sI8622
I1
sI8623
I0
sI8624
I2
sI8625
I0
sI8626
I0
sI8627
I0
sI8628
I6
sI8629
I6
sI8630
I1
sI8631
I1
sI8632
I1
sI8633
I2
sI8634
I2
sI8635
I0
sI8636
I0
sI8637
I0
sI8638
I0
sI8639
I2
sI8640
I1
sI8641
I0
sI8642
I0
sI8643
I6
sI8644
I6
sI8645
I0
sI8646
I1
sI8647
I1
sI8648
I0
sI8649
I1
sI8650
I0
sI8651
I0
sI8652
I0
sI8653
I0
sI8654
I0
sI8655
I0
sI8656
I1
sI8657
I0
sI8658
I3
sI8659
I6
sI8660
I0
sI8661
I1
sI8662
I0
sI8663
I1
sI8664
I0
sI8665
I1
sI8666
I1
sI8667
I1
sI8668
I4
sI8669
I0
sI8670
I3
sI8671
I3
sI8672
I0
sI8673
I0
sI8674
I3
sI8675
I3
sI8676
I2
sI8677
I4
sI8678
I3
sI8679
I3
sI8680
I1
sI8681
I2
sI8682
I4
sI8683
I2
sI8684
I0
sI8685
I1
sI8686
I2
sI8687
I1
sI8688
I1
sI8689
I1
sI8690
I1
sI8691
I1
sI8692
I1
sI8693
I1
sI8694
I0
sI8695
I1
sI8696
I3
sI8697
I2
sI8698
I2
sI8699
I3
sI8700
I1
sI8701
I1
sI8702
I3
sI8703
I3
sI8704
I1
sI8705
I0
sI8706
I0
sI8707
I3
sI8708
I0
sI8709
I0
sI8710
I3
sI8711
I3
sI8712
I2
sI8713
I2
sI8714
I3
sI8715
I1
sI8716
I3
sI8717
I3
sI8718
I0
sI8719
I0
sI8720
I0
sI8721
I2
sI8722
I2
sI8723
I1
sI8724
I2
sI8725
I6
sI8726
I6
sI8727
I6
sI8728
I2
sI8729
I4
sI8730
I0
sI8731
I0
sI8732
I0
sI8733
I4
sI8734
I6
sI8735
I0
sI8736
I0
sI8737
I0
sI8738
I0
sI8739
I0
sI8740
I2
sI8741
I1
sI8742
I5
sI8743
I0
sI8744
I1
sI8745
I0
sI8746
I2
sI8747
I1
sI8748
I1
sI8749
I1
sI8750
I0
sI8751
I1
sI8752
I0
sI8753
I4
sI8754
I1
sI8755
I0
sI8756
I2
sI8757
I0
sI8758
I0
sI8759
I2
sI8760
I3
sI8761
I0
sI8762
I3
sI8763
I1
sI8764
I1
sI8765
I0
sI8766
I1
sI8767
I3
sI8768
I0
sI8769
I0
sI8770
I0
sI8771
I5
sI8772
I0
sI8773
I0
sI8774
I2
sI8775
I3
sI8776
I0
sI8777
I0
sI8778
I0
sI8779
I0
sI8780
I4
sI8781
I4
sI8782
I1
sI8783
I4
sI8784
I2
sI8785
I4
sI8786
I0
sI8787
I4
sI8788
I0
sI8789
I4
sI8790
I4
sI8791
I3
sI8792
I4
sI8793
I0
sI8794
I3
sI8795
I0
sI8796
I4
sI8797
I4
sI8798
I0
sI8799
I4
sI8800
I1
sI8801
I4
sI8802
I1
sI8803
I0
sI8804
I0
sI8805
I5
sI8806
I0
sI8807
I3
sI8808
I1
sI8809
I1
sI8810
I0
sI8811
I0
sI8812
I0
sI8813
I4
sI8814
I0
sI8815
I0
sI8816
I0
sI8817
I0
sI8818
I0
sI8819
I0
sI8820
I0
sI8821
I0
sI8822
I4
sI8823
I4
sI8824
I4
sI8825
I0
sI8826
I4
sI8827
I4
sI8828
I4
sI8829
I0
sI8830
I0
sI8831
I4
sI8832
I4
sI8833
I0
sI8834
I0
sI8835
I0
sI8836
I0
sI8837
I0
sI8838
I0
sI8839
I0
sI8840
I0
sI8841
I0
sI8842
I0
sI8843
I3
sI8844
I0
sI8845
I4
sI8846
I0
sI8847
I0
sI8848
I0
sI8849
I0
sI8850
I2
sI8851
I4
sI8852
I4
sI8853
I1
sI8854
I3
sI8855
I3
sI8856
I0
sI8857
I2
sI8858
I0
sI8859
I3
sI8860
I0
sI8861
I0
sI8862
I0
sI8863
I0
sI8864
I4
sI8865
I4
sI8866
I4
sI8867
I0
sI8868
I0
sI8869
I0
sI8870
I0
sI8871
I0
sI8872
I0
sI8873
I0
sI8874
I4
sI8875
I4
sI8876
I0
sI8877
I0
sI8878
I4
sI8879
I1
sI8880
I0
sI8881
I2
sI8882
I4
sI8883
I4
sI8884
I4
sI8885
I4
sI8886
I4
sI8887
I4
sI8888
I0
sI8889
I0
sI8890
I0
sI8891
I3
sI8892
I6
sI8893
I0
sI8894
I1
sI8895
I4
sI8896
I4
sI8897
I4
sI8898
I4
sI8899
I4
sI8900
I4
sI8901
I4
sI8902
I4
sI8903
I0
sI8904
I0
sI8905
I0
sI8906
I0
sI8907
I1
sI8908
I0
sI8909
I0
sI8910
I0
sI8911
I3
sI8912
I0
sI8913
I0
sI8914
I4
sI8915
I0
sI8916
I0
sI8917
I4
sI8918
I0
sI8919
I0
sI8920
I0
sI8921
I0
sI8922
I1
sI8923
I0
sI8924
I0
sI8925
I2
sI8926
I1
sI8927
I0
sI8928
I0
sI8929
I1
sI8930
I3
sI8931
I3
sI8932
I2
sI8933
I1
sI8934
I0
sI8935
I0
sI8936
I0
sI8937
I0
sI8938
I3
sI8939
I1
sI8940
I1
sI8941
I0
sI8942
I0
sI8943
I1
sI8944
I2
sI8945
I0
sI8946
I1
sI8947
I0
sI8948
I0
sI8949
I1
sI8950
I4
sI8951
I0
sI8952
I0
sI8953
I0
sI8954
I0
sI8955
I1
sI8956
I0
sI8957
I3
sI8958
I4
sI8959
I4
sI8960
I1
sI8961
I0
sI8962
I0
sI8963
I0
sI8964
I0
sI8965
I0
sI8966
I2
sI8967
I0
sI8968
I2
sI8969
I0
sI8970
I3
sI8971
I1
sI8972
I0
sI8973
I0
sI8974
I4
sI8975
I2
sI8976
I2
sI8977
I2
sI8978
I3
sI8979
I1
sI8980
I4
sI8981
I0
sI8982
I3
sI8983
I2
sI8984
I0
sI8985
I0
sI8986
I1
sI8987
I0
sI8988
I0
sI8989
I0
sI8990
I0
sI8991
I3
sI8992
I2
sI8993
I0
sI8994
I0
sI8995
I1
sI8996
I0
sI8997
I2
sI8998
I4
sI8999
I4
sI9000
I0
sI9001
I0
sI9002
I4
sI9003
I4
sI9004
I4
sI9005
I4
sI9006
I4
sI9007
I0
sI9008
I2
sI9009
I3
sI9010
I3
sI9011
I3
sI9012
I4
sI9013
I5
sI9014
I0
sI9015
I0
sI9016
I1
sI9017
I0
sI9018
I0
sI9019
I3
sI9020
I0
sI9021
I3
sI9022
I0
sI9023
I2
sI9024
I4
sI9025
I1
sI9026
I3
sI9027
I3
sI9028
I4
sI9029
I2
sI9030
I3
sI9031
I3
sI9032
I0
sI9033
I0
sI9034
I0
sI9035
I2
sI9036
I4
sI9037
I1
sI9038
I2
sI9039
I0
sI9040
I0
sI9041
I3
sI9042
I0
sI9043
I0
sI9044
I2
sI9045
I0
sI9046
I0
sI9047
I2
sI9048
I0
sI9049
I3
sI9050
I3
sI9051
I2
sI9052
I3
sI9053
I4
sI9054
I3
sI9055
I7
sI9056
I3
sI9057
I3
sI9058
I4
sI9059
I4
sI9060
I0
sI9061
I3
sI9062
I3
sI9063
I4
sI9064
I3
sI9065
I1
sI9066
I1
sI9067
I4
sI9068
I4
sI9069
I0
sI9070
I3
sI9071
I2
sI9072
I1
sI9073
I3
sI9074
I0
sI9075
I0
sI9076
I0
sI9077
I2
sI9078
I0
sI9079
I2
sI9080
I2
sI9081
I0
sI9082
I3
sI9083
I3
sI9084
I0
sI9085
I3
sI9086
I2
sI9087
I2
sI9088
I2
sI9089
I1
sI9090
I2
sI9091
I3
sI9092
I0
sI9093
I2
sI9094
I2
sI9095
I2
sI9096
I3
sI9097
I3
sI9098
I2
sI9099
I2
sI9100
I0
sI9101
I3
sI9102
I3
sI9103
I3
sI9104
I2
sI9105
I0
sI9106
I4
sI9107
I4
sI9108
I2
sI9109
I4
sI9110
I4
sI9111
I2
sI9112
I4
sI9113
I3
sI9114
I3
sI9115
I2
sI9116
I3
sI9117
I0
sI9118
I2
sI9119
I0
sI9120
I3
sI9121
I0
sI9122
I4
sI9123
I3
sI9124
I4
sI9125
I4
sI9126
I1
sI9127
I4
sI9128
I4
sI9129
I0
sI9130
I3
sI9131
I0
sI9132
I3
sI9133
I3
sI9134
I3
sI9135
I4
sI9136
I0
sI9137
I0
sI9138
I0
sI9139
I4
sI9140
I0
sI9141
I4
sI9142
I2
sI9143
I0
sI9144
I3
sI9145
I0
sI9146
I0
sI9147
I0
sI9148
I0
sI9149
I0
sI9150
I0
sI9151
I3
sI9152
I0
sI9153
I0
sI9154
I1
sI9155
I1
sI9156
I4
sI9157
I0
sI9158
I0
sI9159
I0
sI9160
I5
sI9161
I5
sI9162
I0
sI9163
I0
sI9164
I0
sI9165
I0
sI9166
I0
sI9167
I0
sI9168
I0
sI9169
I0
sI9170
I0
sI9171
I0
sI9172
I0
sI9173
I4
sI9174
I0
sI9175
I0
sI9176
I3
sI9177
I0
sI9178
I0
sI9179
I0
sI9180
I0
sI9181
I0
sI9182
I2
sI9183
I0
sI9184
I0
sI9185
I0
sI9186
I1
sI9187
I0
sI9188
I3
sI9189
I4
sI9190
I1
sI9191
I0
sI9192
I1
sI9193
I0
sI9194
I0
sI9195
I0
sI9196
I4
sI9197
I0
sI9198
I0
sI9199
I0
sI9200
I0
sI9201
I0
sI9202
I0
sI9203
I0
sI9204
I0
sI9205
I0
sI9206
I0
sI9207
I0
sI9208
I1
sI9209
I3
sI9210
I2
sI9211
I0
sI9212
I2
sI9213
I0
sI9214
I0
sI9215
I0
sI9216
I0
sI9217
I0
sI9218
I0
sI9219
I0
sI9220
I0
sI9221
I0
sI9222
I0
sI9223
I2
sI9224
I0
sI9225
I3
sI9226
I2
sI9227
I1
sI9228
I3
sI9229
I2
sI9230
I3
sI9231
I3
sI9232
I3
sI9233
I2
sI9234
I3
sI9235
I3
sI9236
I0
sI9237
I2
sI9238
I2
sI9239
I3
sI9240
I3
sI9241
I3
sI9242
I3
sI9243
I2
sI9244
I0
sI9245
I3
sI9246
I0
sI9247
I0
sI9248
I0
sI9249
I0
sI9250
I0
sI9251
I0
sI9252
I3
sI9253
I0
sI9254
I0
sI9255
I0
sI9256
I5
sI9257
I0
sI9258
I2
sI9259
I2
sI9260
I0
sI9261
I0
sI9262
I2
sI9263
I2
sI9264
I3
sI9265
I3
sI9266
I1
sI9267
I0
sI9268
I0
sI9269
I0
sI9270
I3
sI9271
I1
sI9272
I3
sI9273
I0
sI9274
I1
sI9275
I2
sI9276
I2
sI9277
I1
sI9278
I2
sI9279
I0
sI9280
I0
sI9281
I0
sI9282
I0
sI9283
I0
sI9284
I0
sI9285
I0
sI9286
I0
sI9287
I2
sI9288
I4
sI9289
I0
sI9290
I0
sI9291
I0
sI9292
I2
sI9293
I0
sI9294
I5
sI9295
I2
sI9296
I0
sI9297
I0
sI9298
I4
sI9299
I2
sI9300
I2
sI9301
I0
sI9302
I0
sI9303
I4
sI9304
I4
sI9305
I3
sI9306
I0
sI9307
I3
sI9308
I3
sI9309
I0
sI9310
I4
sI9311
I4
sI9312
I0
sI9313
I4
sI9314
I0
sI9315
I0
sI9316
I2
sI9317
I0
sI9318
I3
sI9319
I3
sI9320
I2
sI9321
I3
sI9322
I5
sI9323
I4
sI9324
I3
sI9325
I0
sI9326
I3
sI9327
I0
sI9328
I0
sI9329
I0
sI9330
I0
sI9331
I0
sI9332
I1
sI9333
I2
sI9334
I5
sI9335
I0
sI9336
I2
sI9337
I2
sI9338
I3
sI9339
I1
sI9340
I0
sI9341
I0
sI9342
I0
sI9343
I0
sI9344
I0
sI9345
I2
sI9346
I0
sI9347
I1
sI9348
I2
sI9349
I3
sI9350
I4
sI9351
I0
sI9352
I2
sI9353
I1
sI9354
I0
sI9355
I0
sI9356
I0
sI9357
I3
sI9358
I1
sI9359
I0
sI9360
I0
sI9361
I0
sI9362
I3
sI9363
I1
sI9364
I1
sI9365
I1
sI9366
I4
sI9367
I0
sI9368
I3
sI9369
I4
sI9370
I4
sI9371
I1
sI9372
I1
sI9373
I1
sI9374
I1
sI9375
I1
sI9376
I1
sI9377
I1
sI9378
I1
sI9379
I8
sI9380
I1
sI9381
I1
sI9382
I1
sI9383
I4
sI9384
I9
sI9385
I1
sI9386
I1
sI9387
I2
sI9388
I1
sI9389
I2
sI9390
I1
sI9391
I2
sI9392
I1
sI9393
I1
sI9394
I1
sI9395
I1
sI9396
I3
sI9397
I1
sI9398
I2
sI9399
I0
sI9400
I1
sI9401
I1
sI9402
I6
sI9403
I6
sI9404
I6
sI9405
I6
sI9406
I1
sI9407
I1
sI9408
I1
sI9409
I1
sI9410
I1
sI9411
I1
sI9412
I1
sI9413
I2
sI9414
I1
sI9415
I2
sI9416
I1
sI9417
I1
sI9418
I1
sI9419
I7
sI9420
I1
sI9421
I1
sI9422
I1
sI9423
I0
sI9424
I2
sI9425
I2
sI9426
I1
sI9427
I2
sI9428
I1
sI9429
I1
sI9430
I1
sI9431
I6
sI9432
I4
sI9433
I1
sI9434
I0
sI9435
I1
sI9436
I1
sI9437
I1
sI9438
I1
sI9439
I1
sI9440
I1
sI9441
I0
sI9442
I3
sI9443
I3
sI9444
I1
sI9445
I2
sI9446
I1
sI9447
I2
sI9448
I2
sI9449
I1
sI9450
I1
sI9451
I0
sI9452
I1
sI9453
I0
sI9454
I3
sI9455
I0
sI9456
I1
sI9457
I2
sI9458
I2
sI9459
I3
sI9460
I2
sI9461
I2
sI9462
I2
sI9463
I2
sI9464
I2
sI9465
I1
sI9466
I1
sI9467
I3
sI9468
I1
sI9469
I1
sI9470
I1
sI9471
I1
sI9472
I2
sI9473
I3
sI9474
I1
sI9475
I1
sI9476
I3
sI9477
I3
sI9478
I0
sI9479
I2
sI9480
I0
sI9481
I1
sI9482
I1
sI9483
I1
sI9484
I1
sI9485
I1
sI9486
I3
sI9487
I1
sI9488
I0
sI9489
I2
sI9490
I2
sI9491
I3
sI9492
I4
sI9493
I0
sI9494
I0
sI9495
I1
sI9496
I0
sI9497
I2
sI9498
I0
sI9499
I0
sI9500
I1
sI9501
I3
sI9502
I3
sI9503
I2
sI9504
I0
sI9505
I3
sI9506
I0
sI9507
I0
sI9508
I1
sI9509
I1
sI9510
I2
sI9511
I1
sI9512
I1
sI9513
I1
sI9514
I1
sI9515
I1
sI9516
I2
sI9517
I1
sI9518
I1
sI9519
I3
sI9520
I1
sI9521
I0
sI9522
I1
sI9523
I6
sI9524
I1
sI9525
I1
sI9526
I6
sI9527
I1
sI9528
I1
sI9529
I1
sI9530
I1
sI9531
I1
sI9532
I1
sI9533
I3
sI9534
I1
sI9535
I1
sI9536
I1
sI9537
I1
sI9538
I2
sI9539
I1
sI9540
I1
sI9541
I1
sI9542
I3
sI9543
I1
sI9544
I2
sI9545
I1
sI9546
I1
sI9547
I1
sI9548
I1
sI9549
I0
sI9550
I0
sI9551
I1
sI9552
I1
sI9553
I1
sI9554
I1
sI9555
I1
sI9556
I0
sI9557
I0
sI9558
I4
sI9559
I4
sI9560
I0
sI9561
I1
sI9562
I5
sI9563
I0
sI9564
I3
sI9565
I0
sI9566
I1
sI9567
I4
sI9568
I3
sI9569
I0
sI9570
I4
sI9571
I1
sI9572
I1
sI9573
I0
sI9574
I1
sI9575
I4
sI9576
I3
sI9577
I9
sI9578
I2
sI9579
I0
sI9580
I3
sI9581
I1
sI9582
I1
sI9583
I1
sI9584
I1
sI9585
I1
sI9586
I0
sI9587
I9
sI9588
I1
sI9589
I1
sI9590
I0
sI9591
I0
sI9592
I2
sI9593
I1
sI9594
I1
sI9595
I0
sI9596
I0
sI9597
I4
sI9598
I2
sI9599
I3
sI9600
I5
sI9601
I4
sI9602
I4
sI9603
I4
sI9604
I4
sI9605
I2
sI9606
I2
sI9607
I4
sI9608
I2
sI9609
I4
sI9610
I3
sI9611
I5
sI9612
I2
sI9613
I0
sI9614
I0
sI9615
I0
sI9616
I4
sI9617
I2
sI9618
I3
sI9619
I0
sI9620
I0
sI9621
I2
sI9622
I6
sI9623
I1
sI9624
I6
sI9625
I1
sI9626
I3
sI9627
I3
sI9628
I0
sI9629
I3
sI9630
I3
sI9631
I2
sI9632
I0
sI9633
I0
sI9634
I1
sI9635
I0
sI9636
I0
sI9637
I0
sI9638
I0
sI9639
I0
sI9640
I0
sI9641
I0
sI9642
I0
sI9643
I1
sI9644
I1
sI9645
I0
sI9646
I0
sI9647
I0
sI9648
I2
sI9649
I0
sI9650
I2
sI9651
I1
sI9652
I2
sI9653
I1
sI9654
I0
sI9655
I0
sI9656
I1
sI9657
I6
sI9658
I0
sI9659
I0
sI9660
I0
sI9661
I1
sI9662
I0
sI9663
I0
sI9664
I1
sI9665
I1
sI9666
I0
sI9667
I0
sI9668
I1
sI9669
I2
sI9670
I1
sI9671
I1
sI9672
I3
sI9673
I1
sI9674
I7
sI9675
I1
sI9676
I1
sI9677
I0
sI9678
I0
sI9679
I6
sI9680
I6
sI9681
I0
sI9682
I0
sI9683
I0
sI9684
I1
sI9685
I0
sI9686
I1
sI9687
I2
sI9688
I0
sI9689
I2
sI9690
I2
sI9691
I1
sI9692
I3
sI9693
I2
sI9694
I2
sI9695
I1
sI9696
I1
sI9697
I0
sI9698
I0
sI9699
I1
sI9700
I1
sI9701
I2
sI9702
I2
sI9703
I1
sI9704
I6
sI9705
I1
sI9706
I1
sI9707
I1
sI9708
I3
sI9709
I1
sI9710
I2
sI9711
I1
sI9712
I1
sI9713
I1
sI9714
I0
sI9715
I1
sI9716
I1
sI9717
I1
sI9718
I3
sI9719
I3
sI9720
I2
sI9721
I1
sI9722
I1
sI9723
I1
sI9724
I3
sI9725
I1
sI9726
I0
sI9727
I2
sI9728
I1
sI9729
I1
sI9730
I6
sI9731
I6
sI9732
I1
sI9733
I7
sI9734
I0
sI9735
I0
sI9736
I0
sI9737
I0
sI9738
I1
sI9739
I0
sI9740
I1
sI9741
I7
sI9742
I3
sI9743
I1
sI9744
I2
sI9745
I4
sI9746
I1
sI9747
I1
sI9748
I1
sI9749
I0
sI9750
I6
sI9751
I3
sI9752
I0
sI9753
I1
sI9754
I0
sI9755
I3
sI9756
I1
sI9757
I1
sI9758
I6
sI9759
I1
sI9760
I1
sI9761
I1
sI9762
I6
sI9763
I7
sI9764
I1
sI9765
I0
sI9766
I1
sI9767
I6
sI9768
I1
sI9769
I6
sI9770
I1
sI9771
I1
sI9772
I2
sI9773
I1
sI9774
I0
sI9775
I6
sI9776
I2
sI9777
I0
sI9778
I0
sI9779
I3
sI9780
I0
sI9781
I1
sI9782
I0
sI9783
I1
sI9784
I0
sI9785
I2
sI9786
I1
sI9787
I0
sI9788
I1
sI9789
I1
sI9790
I0
sI9791
I1
sI9792
I0
sI9793
I1
sI9794
I0
sI9795
I1
sI9796
I1
sI9797
I1
sI9798
I0
sI9799
I2
sI9800
I2
sI9801
I0
sI9802
I0
sI9803
I0
sI9804
I0
sI9805
I0
sI9806
I1
sI9807
I2
sI9808
I1
sI9809
I1
sI9810
I0
sI9811
I3
sI9812
I0
sI9813
I0
sI9814
I1
sI9815
I1
sI9816
I2
sI9817
I0
sI9818
I0
sI9819
I0
sI9820
I0
sI9821
I0
sI9822
I0
sI9823
I1
sI9824
I1
sI9825
I0
sI9826
I2
sI9827
I2
sI9828
I0
sI9829
I4
sI9830
I0
sI9831
I2
sI9832
I0
sI9833
I0
sI9834
I3
sI9835
I0
sI9836
I0
sI9837
I4
sI9838
I4
sI9839
I0
sI9840
I4
sI9841
I3
sI9842
I0
sI9843
I0
sI9844
I0
sI9845
I3
sI9846
I4
sI9847
I3
sI9848
I3
sI9849
I3
sI9850
I1
sI9851
I1
sI9852
I1
sI9853
I0
sI9854
I0
sI9855
I0
sI9856
I3
sI9857
I2
sI9858
I2
sI9859
I3
sI9860
I0
sI9861
I1
sI9862
I2
sI9863
I1
sI9864
I0
sI9865
I0
sI9866
I0
sI9867
I0
sI9868
I0
sI9869
I0
sI9870
I0
sI9871
I0
sI9872
I0
sI9873
I0
sI9874
I0
sI9875
I0
sI9876
I0
sI9877
I4
sI9878
I4
sI9879
I4
sI9880
I0
sI9881
I0
sI9882
I0
sI9883
I4
sI9884
I0
sI9885
I4
sI9886
I0
sI9887
I0
sI9888
I0
sI9889
I4
sI9890
I0
sI9891
I0
sI9892
I1
sI9893
I0
sI9894
I0
sI9895
I0
sI9896
I0
sI9897
I0
sI9898
I0
sI9899
I0
sI9900
I3
sI9901
I0
sI9902
I0
sI9903
I2
sI9904
I0
sI9905
I2
sI9906
I0
sI9907
I2
sI9908
I0
sI9909
I4
sI9910
I4
sI9911
I4
sI9912
I1
sI9913
I3
sI9914
I1
sI9915
I0
sI9916
I0
sI9917
I3
sI9918
I0
sI9919
I0
sI9920
I4
sI9921
I0
sI9922
I2
sI9923
I0
sI9924
I4
sI9925
I0
sI9926
I0
sI9927
I0
sI9928
I0
sI9929
I0
sI9930
I0
sI9931
I0
sI9932
I1
sI9933
I0
sI9934
I1
sI9935
I0
sI9936
I0
sI9937
I0
sI9938
I0
sI9939
I4
sI9940
I1
sI9941
I4
sI9942
I0
sI9943
I2
sI9944
I0
sI9945
I0
sI9946
I0
sI9947
I0
sI9948
I0
sI9949
I0
sI9950
I0
sI9951
I4
sI9952
I3
sI9953
I0
sI9954
I4
sI9955
I4
sI9956
I4
sI9957
I0
sI9958
I2
sI9959
I0
sI9960
I0
sI9961
I3
sI9962
I2
sI9963
I2
sI9964
I0
sI9965
I0
sI9966
I0
sI9967
I4
sI9968
I4
sI9969
I4
sI9970
I4
sI9971
I4
sI9972
I4
sI9973
I4
sI9974
I0
sI9975
I0
sI9976
I1
sI9977
I0
sI9978
I0
sI9979
I0
sI9980
I0
sI9981
I0
sI9982
I0
sI9983
I1
sI9984
I0
sI9985
I0
sI9986
I0
sI9987
I0
sI9988
I0
sI9989
I0
sI9990
I0
sI9991
I0
sI9992
I0
sI9993
I0
sI9994
I2
sI9995
I0
sI9996
I4
sI9997
I0
sI9998
I1
sI9999
I0
sI10000
I0
sI10001
I0
sI10002
I0
sI10003
I0
sI10004
I0
sI10005
I0
sI10006
I0
sI10007
I3
sI10008
I1
sI10009
I0
sI10010
I0
sI10011
I3
sI10012
I0
sI10013
I3
sI10014
I2
sI10015
I1
sI10016
I2
sI10017
I2
sI10018
I1
sI10019
I1
sI10020
I4
sI10021
I0
sI10022
I0
sI10023
I0
sI10024
I0
sI10025
I0
sI10026
I0
sI10027
I1
sI10028
I4
sI10029
I4
sI10030
I4
sI10031
I4
sI10032
I0
sI10033
I0
sI10034
I0
sI10035
I0
sI10036
I2
sI10037
I0
sI10038
I1
sI10039
I3
sI10040
I0
sI10041
I0
sI10042
I0
sI10043
I1
sI10044
I0
sI10045
I0
sI10046
I0
sI10047
I0
sI10048
I2
sI10049
I0
sI10050
I3
sI10051
I0
sI10052
I0
sI10053
I3
sI10054
I0
sI10055
I3
sI10056
I3
sI10057
I0
sI10058
I1
sI10059
I1
sI10060
I4
sI10061
I2
sI10062
I3
sI10063
I0
sI10064
I1
sI10065
I0
sI10066
I0
sI10067
I4
sI10068
I1
sI10069
I0
sI10070
I3
sI10071
I3
sI10072
I0
sI10073
I4
sI10074
I3
sI10075
I4
sI10076
I4
sI10077
I0
sI10078
I0
sI10079
I3
sI10080
I2
sI10081
I5
sI10082
I0
sI10083
I0
sI10084
I3
sI10085
I0
sI10086
I0
sI10087
I0
sI10088
I2
sI10089
I5
sI10090
I2
sI10091
I5
sI10092
I5
sI10093
I2
sI10094
I0
sI10095
I0
sI10096
I0
sI10097
I2
sI10098
I3
sI10099
I0
sI10100
I1
sI10101
I3
sI10102
I0
sI10103
I2
sI10104
I0
sI10105
I2
sI10106
I0
sI10107
I3
sI10108
I2
sI10109
I2
sI10110
I0
sI10111
I4
sI10112
I4
sI10113
I0
sI10114
I0
sI10115
I2
sI10116
I2
sI10117
I3
sI10118
I0
sI10119
I0
sI10120
I0
sI10121
I1
sI10122
I0
sI10123
I2
sI10124
I2
sI10125
I0
sI10126
I2
sI10127
I0
sI10128
I0
sI10129
I0
sI10130
I0
sI10131
I4
sI10132
I0
sI10133
I0
sI10134
I0
sI10135
I0
sI10136
I2
sI10137
I4
sI10138
I0
sI10139
I3
sI10140
I4
sI10141
I4
sI10142
I4
sI10143
I0
sI10144
I1
sI10145
I4
sI10146
I0
sI10147
I4
sI10148
I3
sI10149
I0
sI10150
I0
sI10151
I0
sI10152
I0
sI10153
I0
sI10154
I0
sI10155
I4
sI10156
I0
sI10157
I6
sI10158
I0
sI10159
I0
sI10160
I0
sI10161
I3
sI10162
I0
sI10163
I0
sI10164
I4
sI10165
I1
sI10166
I0
sI10167
I0
sI10168
I2
sI10169
I3
sI10170
I2
sI10171
I3
sI10172
I0
sI10173
I0
sI10174
I3
sI10175
I3
sI10176
I0
sI10177
I0
sI10178
I0
sI10179
I0
sI10180
I3
sI10181
I0
sI10182
I0
sI10183
I0
sI10184
I3
sI10185
I3
sI10186
I3
sI10187
I2
sI10188
I0
sI10189
I0
sI10190
I0
sI10191
I2
sI10192
I0
sI10193
I4
sI10194
I1
sI10195
I0
sI10196
I0
sI10197
I0
sI10198
I2
sI10199
I1
sI10200
I0
sI10201
I1
sI10202
I1
sI10203
I3
sI10204
I3
sI10205
I3
sI10206
I2
sI10207
I2
sI10208
I2
sI10209
I2
sI10210
I2
sI10211
I0
sI10212
I0
sI10213
I4
sI10214
I2
sI10215
I4
sI10216
I4
sI10217
I1
sI10218
I4
sI10219
I4
sI10220
I3
sI10221
I4
sI10222
I2
sI10223
I2
sI10224
I0
sI10225
I2
sI10226
I2
sI10227
I3
sI10228
I0
sI10229
I3
sI10230
I3
sI10231
I0
sI10232
I3
sI10233
I0
sI10234
I1
sI10235
I2
sI10236
I0
sI10237
I0
sI10238
I0
sI10239
I2
sI10240
I0
sI10241
I0
sI10242
I3
sI10243
I0
sI10244
I3
sI10245
I3
sI10246
I0
sI10247
I3
sI10248
I3
sI10249
I4
sI10250
I2
sI10251
I3
sI10252
I4
sI10253
I4
sI10254
I3
sI10255
I0
sI10256
I0
sI10257
I0
sI10258
I0
sI10259
I0
sI10260
I4
sI10261
I1
sI10262
I0
sI10263
I1
sI10264
I0
sI10265
I0
sI10266
I3
sI10267
I0
sI10268
I0
sI10269
I4
sI10270
I4
sI10271
I3
sI10272
I3
sI10273
I2
sI10274
I0
sI10275
I0
sI10276
I0
sI10277
I0
sI10278
I1
sI10279
I4
sI10280
I0
sI10281
I1
sI10282
I0
sI10283
I3
sI10284
I3
sI10285
I1
sI10286
I1
sI10287
I0
sI10288
I0
sI10289
I4
sI10290
I4
sI10291
I2
sI10292
I4
sI10293
I0
sI10294
I4
sI10295
I1
sI10296
I3
sI10297
I0
sI10298
I1
sI10299
I0
sI10300
I1
sI10301
I4
sI10302
I0
sI10303
I0
sI10304
I0
sI10305
I1
sI10306
I0
sI10307
I1
sI10308
I4
sI10309
I3
sI10310
I3
sI10311
I0
sI10312
I5
sI10313
I0
sI10314
I0
sI10315
I0
sI10316
I0
sI10317
I0
sI10318
I0
sI10319
I4
sI10320
I1
sI10321
I4
sI10322
I4
sI10323
I4
sI10324
I4
sI10325
I0
sI10326
I3
sI10327
I2
sI10328
I0
sI10329
I0
sI10330
I0
sI10331
I0
sI10332
I2
sI10333
I0
sI10334
I0
sI10335
I0
sI10336
I0
sI10337
I0
sI10338
I0
sI10339
I0
sI10340
I3
sI10341
I0
sI10342
I0
sI10343
I4
sI10344
I0
sI10345
I0
sI10346
I0
sI10347
I4
sI10348
I0
sI10349
I0
sI10350
I0
sI10351
I4
sI10352
I4
sI10353
I0
sI10354
I4
sI10355
I0
sI10356
I4
sI10357
I4
sI10358
I0
sI10359
I0
sI10360
I1
sI10361
I0
sI10362
I1
sI10363
I0
sI10364
I0
sI10365
I1
sI10366
I1
sI10367
I3
sI10368
I2
sI10369
I0
sI10370
I0
sI10371
I0
sI10372
I0
sI10373
I0
sI10374
I0
sI10375
I0
sI10376
I0
sI10377
I0
sI10378
I1
sI10379
I3
sI10380
I5
sI10381
I3
sI10382
I0
sI10383
I0
sI10384
I0
sI10385
I0
sI10386
I0
sI10387
I2
sI10388
I2
sI10389
I3
sI10390
I3
sI10391
I2
sI10392
I3
sI10393
I3
sI10394
I3
sI10395
I3
sI10396
I2
sI10397
I3
sI10398
I0
sI10399
I1
sI10400
I2
sI10401
I0
sI10402
I0
sI10403
I0
sI10404
I0
sI10405
I0
sI10406
I0
sI10407
I0
sI10408
I0
sI10409
I0
sI10410
I0
sI10411
I0
sI10412
I0
sI10413
I0
sI10414
I0
sI10415
I0
sI10416
I2
sI10417
I0
sI10418
I0
sI10419
I0
sI10420
I0
sI10421
I0
sI10422
I0
sI10423
I2
sI10424
I3
sI10425
I0
sI10426
I3
sI10427
I2
sI10428
I2
sI10429
I0
sI10430
I0
sI10431
I2
sI10432
I2
sI10433
I2
sI10434
I0
sI10435
I2
sI10436
I2
sI10437
I2
sI10438
I0
sI10439
I0
sI10440
I2
sI10441
I0
sI10442
I3
sI10443
I0
sI10444
I3
sI10445
I2
sI10446
I0
sI10447
I0
sI10448
I1
sI10449
I5
sI10450
I0
sI10451
I0
sI10452
I2
sI10453
I5
sI10454
I0
sI10455
I0
sI10456
I0
sI10457
I0
sI10458
I0
sI10459
I0
sI10460
I0
sI10461
I0
sI10462
I0
sI10463
I0
sI10464
I2
sI10465
I0
sI10466
I0
sI10467
I0
sI10468
I0
sI10469
I2
sI10470
I2
sI10471
I3
sI10472
I4
sI10473
I3
sI10474
I2
sI10475
I0
sI10476
I3
sI10477
I3
sI10478
I0
sI10479
I0
sI10480
I2
sI10481
I0
sI10482
I0
sI10483
I2
sI10484
I0
sI10485
I2
sI10486
I2
sI10487
I2
sI10488
I0
sI10489
I0
sI10490
I2
sI10491
I2
sI10492
I3
sI10493
I2
sI10494
I0
sI10495
I0
sI10496
I0
sI10497
I0
sI10498
I0
sI10499
I0
sI10500
I3
sI10501
I3
sI10502
I0
sI10503
I0
sI10504
I3
sI10505
I3
sI10506
I2
sI10507
I2
sI10508
I0
sI10509
I2
sI10510
I1
sI10511
I5
sI10512
I0
sI10513
I3
sI10514
I3
sI10515
I0
sI10516
I3
sI10517
I2
sI10518
I3
sI10519
I3
sI10520
I2
sI10521
I2
sI10522
I3
sI10523
I3
sI10524
I0
sI10525
I3
sI10526
I2
sI10527
I3
sI10528
I2
sI10529
I3
sI10530
I3
sI10531
I0
sI10532
I0
sI10533
I2
sI10534
I0
sI10535
I5
sI10536
I4
sI10537
I4
sI10538
I4
sI10539
I2
sI10540
I3
sI10541
I2
sI10542
I2
sI10543
I2
sI10544
I3
sI10545
I0
sI10546
I0
sI10547
I2
sI10548
I0
sI10549
I0
sI10550
I3
sI10551
I2
sI10552
I2
sI10553
I1
sI10554
I1
sI10555
I3
sI10556
I0
sI10557
I2
sI10558
I0
sI10559
I3
sI10560
I0
sI10561
I0
sI10562
I0
sI10563
I0
sI10564
I0
sI10565
I2
sI10566
I2
sI10567
I0
sI10568
I0
sI10569
I0
sI10570
I0
sI10571
I2
sI10572
I0
sI10573
I0
sI10574
I0
sI10575
I0
sI10576
I0
sI10577
I0
sI10578
I0
sI10579
I3
sI10580
I0
sI10581
I4
sI10582
I2
sI10583
I0
sI10584
I4
sI10585
I1
sI10586
I3
sI10587
I3
sI10588
I0
sI10589
I2
sI10590
I1
sI10591
I3
sI10592
I0
sI10593
I2
sI10594
I0
sI10595
I3
sI10596
I1
sI10597
I1
sI10598
I1
sI10599
I1
sI10600
I6
sI10601
I1
sI10602
I1
sI10603
I0
sI10604
I1
sI10605
I1
sI10606
I1
sI10607
I1
sI10608
I9
sI10609
I0
sI10610
I2
sI10611
I1
sI10612
I1
sI10613
I1
sI10614
I1
sI10615
I1
sI10616
I1
sI10617
I1
sI10618
I1
sI10619
I1
sI10620
I1
sI10621
I2
sI10622
I1
sI10623
I1
sI10624
I6
sI10625
I1
sI10626
I4
sI10627
I1
sI10628
I1
sI10629
I2
sI10630
I1
sI10631
I1
sI10632
I1
sI10633
I1
sI10634
I2
sI10635
I1
sI10636
I2
sI10637
I1
sI10638
I1
sI10639
I2
sI10640
I1
sI10641
I2
sI10642
I1
sI10643
I1
sI10644
I1
sI10645
I1
sI10646
I1
sI10647
I2
sI10648
I1
sI10649
I1
sI10650
I1
sI10651
I3
sI10652
I2
sI10653
I1
sI10654
I1
sI10655
I1
sI10656
I1
sI10657
I2
sI10658
I1
sI10659
I1
sI10660
I1
sI10661
I1
sI10662
I1
sI10663
I1
sI10664
I1
sI10665
I2
sI10666
I1
sI10667
I1
sI10668
I3
sI10669
I1
sI10670
I1
sI10671
I1
sI10672
I1
sI10673
I1
sI10674
I1
sI10675
I1
sI10676
I1
sI10677
I2
sI10678
I2
sI10679
I4
sI10680
I1
sI10681
I1
sI10682
I1
sI10683
I1
sI10684
I0
sI10685
I1
sI10686
I2
sI10687
I1
sI10688
I1
sI10689
I1
sI10690
I1
sI10691
I1
sI10692
I2
sI10693
I2
sI10694
I2
sI10695
I1
sI10696
I1
sI10697
I1
sI10698
I1
sI10699
I1
sI10700
I1
sI10701
I1
sI10702
I1
sI10703
I1
sI10704
I1
sI10705
I0
sI10706
I1
sI10707
I1
sI10708
I1
sI10709
I2
sI10710
I1
sI10711
I2
sI10712
I1
sI10713
I1
sI10714
I1
sI10715
I1
sI10716
I1
sI10717
I1
sI10718
I0
sI10719
I0
sI10720
I2
sI10721
I2
sI10722
I1
sI10723
I0
sI10724
I1
sI10725
I2
sI10726
I1
sI10727
I3
sI10728
I1
sI10729
I1
sI10730
I1
sI10731
I1
sI10732
I1
sI10733
I1
sI10734
I1
sI10735
I0
sI10736
I3
sI10737
I1
sI10738
I1
sI10739
I2
sI10740
I1
sI10741
I1
sI10742
I1
sI10743
I1
sI10744
I1
sI10745
I1
sI10746
I1
sI10747
I2
sI10748
I1
sI10749
I1
sI10750
I1
sI10751
I1
sI10752
I1
sI10753
I1
sI10754
I1
sI10755
I1
sI10756
I0
sI10757
I1
sI10758
I1
sI10759
I1
sI10760
I0
sI10761
I1
sI10762
I3
sI10763
I0
sI10764
I0
sI10765
I1
sI10766
I0
sI10767
I0
sI10768
I2
sI10769
I0
sI10770
I1
sI10771
I1
sI10772
I1
sI10773
I0
sI10774
I1
sI10775
I4
sI10776
I1
sI10777
I1
sI10778
I1
sI10779
I1
sI10780
I1
sI10781
I1
sI10782
I3
sI10783
I1
sI10784
I1
sI10785
I1
sI10786
I1
sI10787
I1
sI10788
I3
sI10789
I1
sI10790
I1
sI10791
I1
sI10792
I2
sI10793
I1
sI10794
I4
sI10795
I1
sI10796
I2
sI10797
I2
sI10798
I0
sI10799
I4
sI10800
I4
sI10801
I2
sI10802
I1
sI10803
I4
sI10804
I1
sI10805
I4
sI10806
I1
sI10807
I0
sI10808
I4
sI10809
I1
sI10810
I0
sI10811
I4
sI10812
I6
sI10813
I6
sI10814
I4
sI10815
I0
sI10816
I1
sI10817
I1
sI10818
I1
sI10819
I1
sI10820
I1
sI10821
I0
sI10822
I1
sI10823
I1
sI10824
I0
sI10825
I0
sI10826
I2
sI10827
I0
sI10828
I1
sI10829
I0
sI10830
I2
sI10831
I3
sI10832
I4
sI10833
I0
sI10834
I0
sI10835
I4
sI10836
I0
sI10837
I4
sI10838
I4
sI10839
I4
sI10840
I4
sI10841
I2
sI10842
I2
sI10843
I4
sI10844
I4
sI10845
I2
sI10846
I2
sI10847
I4
sI10848
I0
sI10849
I1
sI10850
I4
sI10851
I4
sI10852
I1
sI10853
I3
sI10854
I2
sI10855
I2
sI10856
I2
sI10857
I0
sI10858
I4
sI10859
I2
sI10860
I3
sI10861
I2
sI10862
I3
sI10863
I3
sI10864
I3
sI10865
I4
sI10866
I6
sI10867
I0
sI10868
I0
sI10869
I0
sI10870
I0
sI10871
I1
sI10872
I1
sI10873
I3
sI10874
I1
sI10875
I1
sI10876
I0
sI10877
I0
sI10878
I1
sI10879
I3
sI10880
I0
sI10881
I0
sI10882
I0
sI10883
I1
sI10884
I1
sI10885
I1
sI10886
I1
sI10887
I0
sI10888
I3
sI10889
I0
sI10890
I2
sI10891
I1
sI10892
I1
sI10893
I1
sI10894
I0
sI10895
I0
sI10896
I0
sI10897
I1
sI10898
I1
sI10899
I1
sI10900
I1
sI10901
I3
sI10902
I0
sI10903
I0
sI10904
I1
sI10905
I1
sI10906
I0
sI10907
I0
sI10908
I0
sI10909
I1
sI10910
I1
sI10911
I1
sI10912
I1
sI10913
I1
sI10914
I0
sI10915
I2
sI10916
I1
sI10917
I2
sI10918
I0
sI10919
I1
sI10920
I1
sI10921
I1
sI10922
I1
sI10923
I1
sI10924
I6
sI10925
I0
sI10926
I6
sI10927
I1
sI10928
I1
sI10929
I0
sI10930
I0
sI10931
I1
sI10932
I1
sI10933
I1
sI10934
I1
sI10935
I1
sI10936
I1
sI10937
I1
sI10938
I1
sI10939
I1
sI10940
I1
sI10941
I1
sI10942
I6
sI10943
I2
sI10944
I1
sI10945
I1
sI10946
I0
sI10947
I0
sI10948
I1
sI10949
I1
sI10950
I1
sI10951
I4
sI10952
I1
sI10953
I0
sI10954
I0
sI10955
I0
sI10956
I1
sI10957
I1
sI10958
I0
sI10959
I0
sI10960
I0
sI10961
I3
sI10962
I2
sI10963
I1
sI10964
I1
sI10965
I1
sI10966
I1
sI10967
I2
sI10968
I2
sI10969
I1
sI10970
I3
sI10971
I1
sI10972
I1
sI10973
I2
sI10974
I1
sI10975
I1
sI10976
I1
sI10977
I1
sI10978
I1
sI10979
I1
sI10980
I1
sI10981
I2
sI10982
I1
sI10983
I1
sI10984
I2
sI10985
I1
sI10986
I1
sI10987
I1
sI10988
I1
sI10989
I1
sI10990
I0
sI10991
I1
sI10992
I1
sI10993
I1
sI10994
I2
sI10995
I2
sI10996
I0
sI10997
I1
sI10998
I3
sI10999
I2
sI11000
I6
sI11001
I3
sI11002
I6
sI11003
I2
sI11004
I1
sI11005
I1
sI11006
I1
sI11007
I0
sI11008
I0
sI11009
I0
sI11010
I0
sI11011
I0
sI11012
I0
sI11013
I1
sI11014
I0
sI11015
I0
sI11016
I3
sI11017
I3
sI11018
I0
sI11019
I2
sI11020
I0
sI11021
I3
sI11022
I1
sI11023
I3
sI11024
I3
sI11025
I1
sI11026
I1
sI11027
I1
sI11028
I1
sI11029
I4
sI11030
I4
sI11031
I1
sI11032
I1
sI11033
I1
sI11034
I0
sI11035
I0
sI11036
I0
sI11037
I2
sI11038
I1
sI11039
I2
sI11040
I2
sI11041
I2
sI11042
I0
sI11043
I1
sI11044
I1
sI11045
I6
sI11046
I1
sI11047
I1
sI11048
I0
sI11049
I0
sI11050
I0
sI11051
I1
sI11052
I0
sI11053
I3
sI11054
I2
sI11055
I2
sI11056
I2
sI11057
I3
sI11058
I3
sI11059
I0
sI11060
I5
sI11061
I3
sI11062
I3
sI11063
I2
sI11064
I2
sI11065
I0
sI11066
I2
sI11067
I1
sI11068
I2
sI11069
I2
sI11070
I1
sI11071
I2
sI11072
I1
sI11073
I0
sI11074
I1
sI11075
I1
sI11076
I1
sI11077
I1
sI11078
I1
sI11079
I1
sI11080
I1
sI11081
I1
sI11082
I3
sI11083
I1
sI11084
I1
sI11085
I0
sI11086
I1
sI11087
I1
sI11088
I1
sI11089
I1
sI11090
I1
sI11091
I1
sI11092
I1
sI11093
I1
sI11094
I0
sI11095
I3
sI11096
I2
sI11097
I2
sI11098
I1
sI11099
I0
sI11100
I3
sI11101
I0
sI11102
I1
sI11103
I2
sI11104
I0
sI11105
I2
sI11106
I0
sI11107
I0
sI11108
I1
sI11109
I1
sI11110
I1
sI11111
I1
sI11112
I1
sI11113
I1
sI11114
I3
sI11115
I2
sI11116
I0
sI11117
I0
sI11118
I3
sI11119
I3
sI11120
I0
sI11121
I1
sI11122
I2
sI11123
I3
sI11124
I1
sI11125
I2
sI11126
I1
sI11127
I0
sI11128
I0
sI11129
I0
sI11130
I1
sI11131
I0
sI11132
I0
sI11133
I0
sI11134
I1
sI11135
I1
sI11136
I0
sI11137
I3
sI11138
I0
sI11139
I1
sI11140
I0
sI11141
I0
sI11142
I0
sI11143
I0
sI11144
I0
sI11145
I0
sI11146
I3
sI11147
I0
sI11148
I0
sI11149
I0
sI11150
I0
sI11151
I0
sI11152
I2
sI11153
I0
sI11154
I0
sI11155
I1
sI11156
I0
sI11157
I0
sI11158
I1
sI11159
I0
sI11160
I4
sI11161
I4
sI11162
I4
sI11163
I4
sI11164
I2
sI11165
I0
sI11166
I0
sI11167
I0
sI11168
I0
sI11169
I0
sI11170
I4
sI11171
I4
sI11172
I0
sI11173
I4
sI11174
I0
sI11175
I0
sI11176
I4
sI11177
I4
sI11178
I3
sI11179
I0
sI11180
I0
sI11181
I4
sI11182
I3
sI11183
I0
sI11184
I4
sI11185
I1
sI11186
I0
sI11187
I0
sI11188
I4
sI11189
I3
sI11190
I4
sI11191
I4
sI11192
I0
sI11193
I0
sI11194
I0
sI11195
I3
sI11196
I3
sI11197
I0
sI11198
I3
sI11199
I3
sI11200
I2
sI11201
I3
sI11202
I2
sI11203
I0
sI11204
I0
sI11205
I3
sI11206
I3
sI11207
I1
sI11208
I0
sI11209
I1
sI11210
I0
sI11211
I0
sI11212
I1
sI11213
I0
sI11214
I0
sI11215
I0
sI11216
I0
sI11217
I0
sI11218
I0
sI11219
I0
sI11220
I0
sI11221
I0
sI11222
I0
sI11223
I0
sI11224
I0
sI11225
I0
sI11226
I0
sI11227
I0
sI11228
I3
sI11229
I0
sI11230
I0
sI11231
I0
sI11232
I4
sI11233
I0
sI11234
I0
sI11235
I0
sI11236
I0
sI11237
I0
sI11238
I0
sI11239
I0
sI11240
I0
sI11241
I0
sI11242
I0
sI11243
I4
sI11244
I0
sI11245
I1
sI11246
I0
sI11247
I1
sI11248
I0
sI11249
I0
sI11250
I0
sI11251
I3
sI11252
I0
sI11253
I0
sI11254
I0
sI11255
I3
sI11256
I0
sI11257
I0
sI11258
I2
sI11259
I0
sI11260
I0
sI11261
I1
sI11262
I1
sI11263
I4
sI11264
I4
sI11265
I1
sI11266
I2
sI11267
I1
sI11268
I0
sI11269
I1
sI11270
I1
sI11271
I3
sI11272
I0
sI11273
I0
sI11274
I3
sI11275
I2
sI11276
I0
sI11277
I0
sI11278
I0
sI11279
I0
sI11280
I0
sI11281
I0
sI11282
I0
sI11283
I0
sI11284
I4
sI11285
I0
sI11286
I4
sI11287
I0
sI11288
I1
sI11289
I0
sI11290
I1
sI11291
I1
sI11292
I0
sI11293
I0
sI11294
I0
sI11295
I0
sI11296
I3
sI11297
I1
sI11298
I1
sI11299
I4
sI11300
I4
sI11301
I0
sI11302
I1
sI11303
I4
sI11304
I0
sI11305
I0
sI11306
I0
sI11307
I0
sI11308
I4
sI11309
I0
sI11310
I4
sI11311
I4
sI11312
I4
sI11313
I0
sI11314
I1
sI11315
I1
sI11316
I0
sI11317
I0
sI11318
I0
sI11319
I2
sI11320
I0
sI11321
I0
sI11322
I0
sI11323
I4
sI11324
I0
sI11325
I4
sI11326
I0
sI11327
I3
sI11328
I1
sI11329
I3
sI11330
I6
sI11331
I2
sI11332
I0
sI11333
I0
sI11334
I6
sI11335
I0
sI11336
I0
sI11337
I3
sI11338
I0
sI11339
I0
sI11340
I0
sI11341
I0
sI11342
I0
sI11343
I4
sI11344
I4
sI11345
I4
sI11346
I4
sI11347
I1
sI11348
I0
sI11349
I0
sI11350
I4
sI11351
I0
sI11352
I0
sI11353
I0
sI11354
I0
sI11355
I0
sI11356
I0
sI11357
I0
sI11358
I2
sI11359
I0
sI11360
I0
sI11361
I0
sI11362
I2
sI11363
I0
sI11364
I1
sI11365
I0
sI11366
I0
sI11367
I0
sI11368
I0
sI11369
I0
sI11370
I0
sI11371
I0
sI11372
I0
sI11373
I0
sI11374
I0
sI11375
I3
sI11376
I3
sI11377
I2
sI11378
I0
sI11379
I0
sI11380
I1
sI11381
I1
sI11382
I0
sI11383
I0
sI11384
I1
sI11385
I0
sI11386
I0
sI11387
I0
sI11388
I1
sI11389
I0
sI11390
I3
sI11391
I2
sI11392
I2
sI11393
I0
sI11394
I2
sI11395
I2
sI11396
I1
sI11397
I0
sI11398
I0
sI11399
I2
sI11400
I1
sI11401
I0
sI11402
I2
sI11403
I0
sI11404
I0
sI11405
I0
sI11406
I0
sI11407
I0
sI11408
I0
sI11409
I0
sI11410
I1
sI11411
I4
sI11412
I0
sI11413
I4
sI11414
I1
sI11415
I4
sI11416
I4
sI11417
I4
sI11418
I0
sI11419
I4
sI11420
I2
sI11421
I3
sI11422
I0
sI11423
I2
sI11424
I3
sI11425
I0
sI11426
I0
sI11427
I3
sI11428
I4
sI11429
I3
sI11430
I3
sI11431
I3
sI11432
I1
sI11433
I1
sI11434
I3
sI11435
I1
sI11436
I1
sI11437
I0
sI11438
I3
sI11439
I4
sI11440
I2
sI11441
I0
sI11442
I2
sI11443
I3
sI11444
I0
sI11445
I2
sI11446
I2
sI11447
I2
sI11448
I0
sI11449
I0
sI11450
I0
sI11451
I3
sI11452
I3
sI11453
I2
sI11454
I0
sI11455
I0
sI11456
I0
sI11457
I0
sI11458
I3
sI11459
I0
sI11460
I4
sI11461
I0
sI11462
I4
sI11463
I4
sI11464
I0
sI11465
I0
sI11466
I3
sI11467
I1
sI11468
I1
sI11469
I4
sI11470
I4
sI11471
I4
sI11472
I2
sI11473
I0
sI11474
I0
sI11475
I0
sI11476
I0
sI11477
I3
sI11478
I3
sI11479
I0
sI11480
I0
sI11481
I0
sI11482
I4
sI11483
I5
sI11484
I4
sI11485
I0
sI11486
I0
sI11487
I1
sI11488
I3
sI11489
I1
sI11490
I2
sI11491
I1
sI11492
I1
sI11493
I1
sI11494
I1
sI11495
I2
sI11496
I0
sI11497
I2
sI11498
I0
sI11499
I0
sI11500
I1
sI11501
I0
sI11502
I0
sI11503
I1
sI11504
I2
sI11505
I1
sI11506
I3
sI11507
I2
sI11508
I0
sI11509
I0
sI11510
I0
sI11511
I2
sI11512
I0
sI11513
I2
sI11514
I2
sI11515
I1
sI11516
I2
sI11517
I0
sI11518
I1
sI11519
I1
sI11520
I0
sI11521
I0
sI11522
I0
sI11523
I2
sI11524
I0
sI11525
I0
sI11526
I2
sI11527
I3
sI11528
I1
sI11529
I0
sI11530
I0
sI11531
I0
sI11532
I0
sI11533
I0
sI11534
I2
sI11535
I0
sI11536
I0
sI11537
I0
sI11538
I3
sI11539
I0
sI11540
I0
sI11541
I3
sI11542
I2
sI11543
I0
sI11544
I0
sI11545
I0
sI11546
I2
sI11547
I0
sI11548
I3
sI11549
I4
sI11550
I0
sI11551
I0
sI11552
I2
sI11553
I3
sI11554
I3
sI11555
I3
sI11556
I3
sI11557
I0
sI11558
I3
sI11559
I3
sI11560
I2
sI11561
I1
sI11562
I1
sI11563
I1
sI11564
I4
sI11565
I3
sI11566
I4
sI11567
I6
sI11568
I4
sI11569
I0
sI11570
I1
sI11571
I1
sI11572
I0
sI11573
I5
sI11574
I5
sI11575
I0
sI11576
I4
sI11577
I3
sI11578
I0
sI11579
I3
sI11580
I3
sI11581
I2
sI11582
I3
sI11583
I5
sI11584
I2
sI11585
I3
sI11586
I0
sI11587
I4
sI11588
I4
sI11589
I4
sI11590
I1
sI11591
I1
sI11592
I3
sI11593
I0
sI11594
I0
sI11595
I1
sI11596
I0
sI11597
I4
sI11598
I3
sI11599
I0
sI11600
I3
sI11601
I0
sI11602
I0
sI11603
I3
sI11604
I0
sI11605
I3
sI11606
I0
sI11607
I0
sI11608
I0
sI11609
I2
sI11610
I4
sI11611
I3
sI11612
I0
sI11613
I1
sI11614
I0
sI11615
I0
sI11616
I0
sI11617
I0
sI11618
I3
sI11619
I0
sI11620
I3
sI11621
I0
sI11622
I2
sI11623
I3
sI11624
I2
sI11625
I2
sI11626
I3
sI11627
I0
sI11628
I2
sI11629
I0
sI11630
I0
sI11631
I0
sI11632
I0
sI11633
I3
sI11634
I2
sI11635
I2
sI11636
I3
sI11637
I2
sI11638
I2
sI11639
I2
sI11640
I0
sI11641
I0
sI11642
I1
sI11643
I3
sI11644
I0
sI11645
I2
sI11646
I2
sI11647
I3
sI11648
I2
sI11649
I0
sI11650
I1
sI11651
I1
sI11652
I0
sI11653
I3
sI11654
I2
sI11655
I0
sI11656
I2
sI11657
I2
sI11658
I0
sI11659
I0
sI11660
I3
sI11661
I2
sI11662
I3
sI11663
I0
sI11664
I4
sI11665
I0
sI11666
I0
sI11667
I2
sI11668
I3
sI11669
I2
sI11670
I2
sI11671
I1
sI11672
I2
sI11673
I2
sI11674
I0
sI11675
I0
sI11676
I0
sI11677
I3
sI11678
I3
sI11679
I2
sI11680
I3
sI11681
I3
sI11682
I0
sI11683
I2
sI11684
I0
sI11685
I0
sI11686
I0
sI11687
I1
sI11688
I1
sI11689
I0
sI11690
I0
sI11691
I0
sI11692
I0
sI11693
I0
sI11694
I0
sI11695
I3
sI11696
I3
sI11697
I3
sI11698
I0
sI11699
I0
sI11700
I3
sI11701
I0
sI11702
I0
sI11703
I2
sI11704
I0
sI11705
I0
sI11706
I0
sI11707
I2
sI11708
I0
sI11709
I0
sI11710
I2
sI11711
I0
sI11712
I0
sI11713
I4
sI11714
I0
sI11715
I3
sI11716
I0
sI11717
I0
sI11718
I0
sI11719
I0
sI11720
I4
sI11721
I0
sI11722
I4
sI11723
I0
sI11724
I2
sI11725
I0
sI11726
I0
sI11727
I1
sI11728
I1
sI11729
I3
sI11730
I0
sI11731
I0
sI11732
I0
sI11733
I1
sI11734
I1
sI11735
I0
sI11736
I1
sI11737
I0
sI11738
I1
sI11739
I1
sI11740
I0
sI11741
I1
sI11742
I0
sI11743
I4
sI11744
I0
sI11745
I4
sI11746
I1
sI11747
I0
sI11748
I0
sI11749
I1
sI11750
I0
sI11751
I1
sI11752
I0
sI11753
I1
sI11754
I1
sI11755
I1
sI11756
I1
sI11757
I1
sI11758
I3
sI11759
I0
sI11760
I2
sI11761
I4
sI11762
I3
sI11763
I0
sI11764
I4
sI11765
I0
sI11766
I0
sI11767
I0
sI11768
I3
sI11769
I0
sI11770
I1
sI11771
I0
sI11772
I2
sI11773
I4
sI11774
I1
sI11775
I1
sI11776
I1
sI11777
I1
sI11778
I0
sI11779
I2
sI11780
I2
sI11781
I2
sI11782
I2
sI11783
I2
sI11784
I0
sI11785
I0
sI11786
I0
sI11787
I2
sI11788
I2
sI11789
I0
sI11790
I3
sI11791
I0
sI11792
I2
sI11793
I3
sI11794
I3
sI11795
I2
sI11796
I0
sI11797
I4
sI11798
I0
sI11799
I0
sI11800
I0
sI11801
I0
sI11802
I0
sI11803
I0
sI11804
I0
sI11805
I4
sI11806
I0
sI11807
I4
sI11808
I0
sI11809
I0
sI11810
I1
sI11811
I0
sI11812
I0
sI11813
I0
sI11814
I0
sI11815
I0
sI11816
I4
sI11817
I0
sI11818
I0
sI11819
I1
sI11820
I1
sI11821
I2
sI11822
I0
sI11823
I3
sI11824
I0
sI11825
I2
sI11826
I0
sI11827
I0
sI11828
I0
sI11829
I0
sI11830
I0
sI11831
I0
sI11832
I0
sI11833
I0
sI11834
I4
sI11835
I1
sI11836
I0
sI11837
I3
sI11838
I0
sI11839
I3
sI11840
I0
sI11841
I0
sI11842
I0
sI11843
I4
sI11844
I0
sI11845
I3
sI11846
I5
sI11847
I2
sI11848
I1
sI11849
I1
sI11850
I0
sI11851
I0
sI11852
I0
sI11853
I0
sI11854
I0
sI11855
I3
sI11856
I0
sI11857
I3
sI11858
I3
sI11859
I3
sI11860
I2
sI11861
I1
sI11862
I1
sI11863
I4
sI11864
I5
sI11865
I5
sI11866
I3
sI11867
I2
sI11868
I3
sI11869
I3
sI11870
I3
sI11871
I3
sI11872
I2
sI11873
I0
sI11874
I2
sI11875
I2
sI11876
I3
sI11877
I2
sI11878
I2
sI11879
I4
sI11880
I0
sI11881
I2
sI11882
I2
sI11883
I0
sI11884
I3
sI11885
I3
sI11886
I0
sI11887
I0
sI11888
I0
sI11889
I0
sI11890
I0
sI11891
I0
sI11892
I0
sI11893
I0
sI11894
I0
sI11895
I3
sI11896
I0
sI11897
I0
sI11898
I0
sI11899
I0
sI11900
I0
sI11901
I0
sI11902
I0
sI11903
I0
sI11904
I0
sI11905
I0
sI11906
I4
sI11907
I3
sI11908
I3
sI11909
I0
sI11910
I0
sI11911
I0
sI11912
I0
sI11913
I2
sI11914
I3
sI11915
I0
sI11916
I3
sI11917
I0
sI11918
I0
sI11919
I0
sI11920
I0
sI11921
I3
sI11922
I5
sI11923
I5
sI11924
I0
sI11925
I0
sI11926
I0
sI11927
I0
sI11928
I0
sI11929
I0
sI11930
I0
sI11931
I2
sI11932
I0
sI11933
I5
sI11934
I0
sI11935
I0
sI11936
I0
sI11937
I0
sI11938
I0
sI11939
I0
sI11940
I0
sI11941
I0
sI11942
I0
sI11943
I2
sI11944
I2
sI11945
I2
sI11946
I0
sI11947
I0
sI11948
I0
sI11949
I0
sI11950
I1
sI11951
I2
sI11952
I2
sI11953
I5
sI11954
I0
sI11955
I2
sI11956
I2
sI11957
I3
sI11958
I1
sI11959
I2
sI11960
I2
sI11961
I2
sI11962
I3
sI11963
I1
sI11964
I1
sI11965
I1
sI11966
I1
sI11967
I3
sI11968
I2
sI11969
I2
sI11970
I2
sI11971
I2
sI11972
I2
sI11973
I0
sI11974
I0
sI11975
I2
sI11976
I2
sI11977
I3
sI11978
I3
sI11979
I2
sI11980
I0
sI11981
I3
sI11982
I0
sI11983
I1
sI11984
I2
sI11985
I3
sI11986
I3
sI11987
I2
sI11988
I2
sI11989
I3
sI11990
I4
sI11991
I3
sI11992
I3
sI11993
I0
sI11994
I3
sI11995
I3
sI11996
I3
sI11997
I0
sI11998
I0
sI11999
I0
sI12000
I0
sI12001
I0
sI12002
I0
sI12003
I0
sI12004
I0
sI12005
I0
sI12006
I0
sI12007
I0
sI12008
I0
sI12009
I3
sI12010
I0
sI12011
I0
sI12012
I0
sI12013
I3
sI12014
I2
sI12015
I2
sI12016
I0
sI12017
I5
sI12018
I0
sI12019
I2
sI12020
I3
sI12021
I0
sI12022
I2
sI12023
I3
sI12024
I3
sI12025
I0
sI12026
I3
sI12027
I4
sI12028
I3
sI12029
I3
sI12030
I3
sI12031
I2
sI12032
I2
sI12033
I0
sI12034
I1
sI12035
I1
sI12036
I0
sI12037
I1
sI12038
I1
sI12039
I0
sI12040
I2
sI12041
I2
sI12042
I3
sI12043
I2
sI12044
I3
sI12045
I4
sI12046
I4
sI12047
I2
sI12048
I2
sI12049
I2
sI12050
I2
sI12051
I0
sI12052
I0
sI12053
I0
sI12054
I0
sI12055
I3
sI12056
I0
sI12057
I0
sI12058
I3
sI12059
I0
sI12060
I4
sI12061
I0
sI12062
I0
sI12063
I0
sI12064
I0
sI12065
I0
sI12066
I0
sI12067
I0
sI12068
I0
sI12069
I0
sI12070
I0
sI12071
I3
sI12072
I3
sI12073
I2
sI12074
I2
sI12075
I2
sI12076
I2
sI12077
I2
sI12078
I2
sI12079
I0
sI12080
I4
sI12081
I3
sI12082
I0
sI12083
I0
sI12084
I0
sI12085
I0
sI12086
I0
sI12087
I0
sI12088
I0
sI12089
I0
sI12090
I2
sI12091
I2
sI12092
I0
sI12093
I0
sI12094
I1
sI12095
I3
sI12096
I5
sI12097
I2
sI12098
I2
sI12099
I3
sI12100
I3
sI12101
I5
sI12102
I1
sI12103
I6
sI12104
I6
sI12105
I2
sI12106
I1
sI12107
I0
sI12108
I2
sI12109
I4
sI12110
I3
sI12111
I0
sI12112
I2
sI12113
I0
sI12114
I0
sI12115
I3
sI12116
I0
sI12117
I0
sI12118
I1
sI12119
I1
sI12120
I1
sI12121
I3
sI12122
I1
sI12123
I6
sI12124
I1
sI12125
I1
sI12126
I1
sI12127
I1
sI12128
I6
sI12129
I1
sI12130
I1
sI12131
I6
sI12132
I1
sI12133
I1
sI12134
I1
sI12135
I1
sI12136
I1
sI12137
I1
sI12138
I1
sI12139
I1
sI12140
I1
sI12141
I6
sI12142
I1
sI12143
I1
sI12144
I1
sI12145
I1
sI12146
I2
sI12147
I1
sI12148
I1
sI12149
I1
sI12150
I1
sI12151
I1
sI12152
I1
sI12153
I1
sI12154
I0
sI12155
I1
sI12156
I1
sI12157
I1
sI12158
I2
sI12159
I1
sI12160
I1
sI12161
I1
sI12162
I1
sI12163
I1
sI12164
I1
sI12165
I1
sI12166
I1
sI12167
I3
sI12168
I3
sI12169
I1
sI12170
I1
sI12171
I1
sI12172
I1
sI12173
I1
sI12174
I1
sI12175
I6
sI12176
I0
sI12177
I3
sI12178
I3
sI12179
I1
sI12180
I2
sI12181
I1
sI12182
I1
sI12183
I1
sI12184
I1
sI12185
I1
sI12186
I3
sI12187
I1
sI12188
I1
sI12189
I1
sI12190
I1
sI12191
I1
sI12192
I1
sI12193
I1
sI12194
I1
sI12195
I1
sI12196
I1
sI12197
I1
sI12198
I1
sI12199
I2
sI12200
I0
sI12201
I1
sI12202
I1
sI12203
I1
sI12204
I1
sI12205
I1
sI12206
I1
sI12207
I1
sI12208
I1
sI12209
I1
sI12210
I3
sI12211
I1
sI12212
I1
sI12213
I1
sI12214
I1
sI12215
I1
sI12216
I3
sI12217
I1
sI12218
I1
sI12219
I0
sI12220
I1
sI12221
I1
sI12222
I1
sI12223
I1
sI12224
I1
sI12225
I0
sI12226
I1
sI12227
I1
sI12228
I1
sI12229
I1
sI12230
I0
sI12231
I0
sI12232
I1
sI12233
I0
sI12234
I0
sI12235
I3
sI12236
I0
sI12237
I1
sI12238
I1
sI12239
I1
sI12240
I1
sI12241
I1
sI12242
I1
sI12243
I3
sI12244
I1
sI12245
I1
sI12246
I0
sI12247
I1
sI12248
I1
sI12249
I1
sI12250
I1
sI12251
I3
sI12252
I1
sI12253
I1
sI12254
I1
sI12255
I1
sI12256
I1
sI12257
I1
sI12258
I1
sI12259
I1
sI12260
I1
sI12261
I1
sI12262
I1
sI12263
I1
sI12264
I1
sI12265
I1
sI12266
I1
sI12267
I1
sI12268
I1
sI12269
I3
sI12270
I1
sI12271
I1
sI12272
I6
sI12273
I0
sI12274
I1
sI12275
I0
sI12276
I1
sI12277
I1
sI12278
I2
sI12279
I0
sI12280
I1
sI12281
I1
sI12282
I1
sI12283
I1
sI12284
I0
sI12285
I2
sI12286
I2
sI12287
I2
sI12288
I1
sI12289
I5
sI12290
I6
sI12291
I6
sI12292
I1
sI12293
I1
sI12294
I1
sI12295
I1
sI12296
I2
sI12297
I0
sI12298
I1
sI12299
I1
sI12300
I1
sI12301
I0
sI12302
I0
sI12303
I1
sI12304
I1
sI12305
I2
sI12306
I1
sI12307
I2
sI12308
I0
sI12309
I0
sI12310
I4
sI12311
I1
sI12312
I4
sI12313
I1
sI12314
I0
sI12315
I0
sI12316
I1
sI12317
I1
sI12318
I0
sI12319
I0
sI12320
I0
sI12321
I4
sI12322
I0
sI12323
I0
sI12324
I3
sI12325
I0
sI12326
I0
sI12327
I0
sI12328
I4
sI12329
I1
sI12330
I0
sI12331
I3
sI12332
I4
sI12333
I3
sI12334
I4
sI12335
I3
sI12336
I2
sI12337
I5
sI12338
I2
sI12339
I1
sI12340
I2
sI12341
I2
sI12342
I2
sI12343
I5
sI12344
I2
sI12345
I3
sI12346
I3
sI12347
I1
sI12348
I0
sI12349
I0
sI12350
I0
sI12351
I1
sI12352
I3
sI12353
I1
sI12354
I3
sI12355
I3
sI12356
I3
sI12357
I3
sI12358
I2
sI12359
I3
sI12360
I3
sI12361
I3
sI12362
I0
sI12363
I0
sI12364
I2
sI12365
I1
sI12366
I0
sI12367
I0
sI12368
I1
sI12369
I1
sI12370
I0
sI12371
I0
sI12372
I2
sI12373
I1
sI12374
I1
sI12375
I0
sI12376
I1
sI12377
I1
sI12378
I1
sI12379
I0
sI12380
I3
sI12381
I3
sI12382
I0
sI12383
I0
sI12384
I1
sI12385
I3
sI12386
I0
sI12387
I1
sI12388
I0
sI12389
I1
sI12390
I2
sI12391
I1
sI12392
I1
sI12393
I1
sI12394
I1
sI12395
I1
sI12396
I0
sI12397
I3
sI12398
I0
sI12399
I1
sI12400
I1
sI12401
I0
sI12402
I0
sI12403
I0
sI12404
I1
sI12405
I0
sI12406
I1
sI12407
I1
sI12408
I3
sI12409
I3
sI12410
I3
sI12411
I1
sI12412
I1
sI12413
I6
sI12414
I1
sI12415
I1
sI12416
I1
sI12417
I1
sI12418
I1
sI12419
I0
sI12420
I1
sI12421
I1
sI12422
I1
sI12423
I1
sI12424
I0
sI12425
I0
sI12426
I0
sI12427
I1
sI12428
I1
sI12429
I1
sI12430
I1
sI12431
I1
sI12432
I1
sI12433
I1
sI12434
I1
sI12435
I1
sI12436
I1
sI12437
I1
sI12438
I1
sI12439
I1
sI12440
I1
sI12441
I1
sI12442
I1
sI12443
I1
sI12444
I1
sI12445
I1
sI12446
I1
sI12447
I1
sI12448
I1
sI12449
I1
sI12450
I6
sI12451
I3
sI12452
I1
sI12453
I1
sI12454
I0
sI12455
I1
sI12456
I1
sI12457
I0
sI12458
I6
sI12459
I0
sI12460
I0
sI12461
I0
sI12462
I6
sI12463
I6
sI12464
I1
sI12465
I1
sI12466
I2
sI12467
I2
sI12468
I2
sI12469
I6
sI12470
I3
sI12471
I1
sI12472
I1
sI12473
I0
sI12474
I0
sI12475
I1
sI12476
I0
sI12477
I0
sI12478
I1
sI12479
I1
sI12480
I1
sI12481
I1
sI12482
I1
sI12483
I1
sI12484
I1
sI12485
I1
sI12486
I1
sI12487
I1
sI12488
I1
sI12489
I2
sI12490
I1
sI12491
I2
sI12492
I1
sI12493
I1
sI12494
I1
sI12495
I0
sI12496
I1
sI12497
I1
sI12498
I1
sI12499
I1
sI12500
I1
sI12501
I1
sI12502
I1
sI12503
I1
sI12504
I1
sI12505
I1
sI12506
I1
sI12507
I1
sI12508
I1
sI12509
I1
sI12510
I6
sI12511
I1
sI12512
I1
sI12513
I1
sI12514
I1
sI12515
I1
sI12516
I1
sI12517
I1
sI12518
I1
sI12519
I1
sI12520
I1
sI12521
I1
sI12522
I1
sI12523
I1
sI12524
I1
sI12525
I1
sI12526
I1
sI12527
I1
sI12528
I1
sI12529
I1
sI12530
I1
sI12531
I1
sI12532
I1
sI12533
I0
sI12534
I0
sI12535
I1
sI12536
I1
sI12537
I1
sI12538
I3
sI12539
I1
sI12540
I3
sI12541
I0
sI12542
I1
sI12543
I1
sI12544
I1
sI12545
I2
sI12546
I2
sI12547
I2
sI12548
I2
sI12549
I2
sI12550
I0
sI12551
I1
sI12552
I3
sI12553
I0
sI12554
I2
sI12555
I1
sI12556
I1
sI12557
I1
sI12558
I1
sI12559
I1
sI12560
I1
sI12561
I1
sI12562
I1
sI12563
I1
sI12564
I1
sI12565
I1
sI12566
I1
sI12567
I1
sI12568
I1
sI12569
I1
sI12570
I3
sI12571
I3
sI12572
I0
sI12573
I1
sI12574
I1
sI12575
I2
sI12576
I0
sI12577
I3
sI12578
I1
sI12579
I0
sI12580
I1
sI12581
I3
sI12582
I1
sI12583
I1
sI12584
I6
sI12585
I1
sI12586
I0
sI12587
I1
sI12588
I1
sI12589
I0
sI12590
I2
sI12591
I2
sI12592
I0
sI12593
I1
sI12594
I2
sI12595
I6
sI12596
I1
sI12597
I3
sI12598
I1
sI12599
I1
sI12600
I0
sI12601
I0
sI12602
I0
sI12603
I3
sI12604
I2
sI12605
I0
sI12606
I2
sI12607
I1
sI12608
I2
sI12609
I1
sI12610
I2
sI12611
I0
sI12612
I1
sI12613
I2
sI12614
I1
sI12615
I2
sI12616
I1
sI12617
I6
sI12618
I1
sI12619
I3
sI12620
I1
sI12621
I1
sI12622
I1
sI12623
I1
sI12624
I1
sI12625
I1
sI12626
I1
sI12627
I2
sI12628
I2
sI12629
I1
sI12630
I1
sI12631
I2
sI12632
I1
sI12633
I2
sI12634
I1
sI12635
I1
sI12636
I1
sI12637
I1
sI12638
I1
sI12639
I1
sI12640
I1
sI12641
I1
sI12642
I1
sI12643
I1
sI12644
I3
sI12645
I6
sI12646
I6
sI12647
I6
sI12648
I1
sI12649
I6
sI12650
I1
sI12651
I1
sI12652
I1
sI12653
I3
sI12654
I4
sI12655
I1
sI12656
I1
sI12657
I1
sI12658
I1
sI12659
I1
sI12660
I1
sI12661
I1
sI12662
I1
sI12663
I0
sI12664
I2
sI12665
I2
sI12666
I3
sI12667
I0
sI12668
I1
sI12669
I2
sI12670
I0
sI12671
I0
sI12672
I1
sI12673
I0
sI12674
I2
sI12675
I2
sI12676
I0
sI12677
I2
sI12678
I2
sI12679
I1
sI12680
I1
sI12681
I0
sI12682
I3
sI12683
I1
sI12684
I3
sI12685
I3
sI12686
I1
sI12687
I2
sI12688
I2
sI12689
I2
sI12690
I1
sI12691
I1
sI12692
I3
sI12693
I1
sI12694
I0
sI12695
I2
sI12696
I2
sI12697
I1
sI12698
I3
sI12699
I0
sI12700
I2
sI12701
I2
sI12702
I0
sI12703
I0
sI12704
I1
sI12705
I1
sI12706
I1
sI12707
I0
sI12708
I0
sI12709
I1
sI12710
I1
sI12711
I0
sI12712
I0
sI12713
I2
sI12714
I0
sI12715
I1
sI12716
I0
sI12717
I2
sI12718
I0
sI12719
I1
sI12720
I3
sI12721
I3
sI12722
I1
sI12723
I0
sI12724
I0
sI12725
I0
sI12726
I1
sI12727
I0
sI12728
I1
sI12729
I0
sI12730
I0
sI12731
I0
sI12732
I0
sI12733
I0
sI12734
I0
sI12735
I1
sI12736
I3
sI12737
I0
sI12738
I2
sI12739
I0
sI12740
I0
sI12741
I0
sI12742
I1
sI12743
I0
sI12744
I0
sI12745
I2
sI12746
I4
sI12747
I0
sI12748
I0
sI12749
I0
sI12750
I0
sI12751
I0
sI12752
I0
sI12753
I0
sI12754
I0
sI12755
I0
sI12756
I0
sI12757
I0
sI12758
I0
sI12759
I0
sI12760
I0
sI12761
I0
sI12762
I0
sI12763
I4
sI12764
I0
sI12765
I0
sI12766
I0
sI12767
I0
sI12768
I4
sI12769
I0
sI12770
I1
sI12771
I0
sI12772
I0
sI12773
I0
sI12774
I2
sI12775
I4
sI12776
I0
sI12777
I0
sI12778
I2
sI12779
I4
sI12780
I4
sI12781
I0
sI12782
I0
sI12783
I0
sI12784
I0
sI12785
I0
sI12786
I0
sI12787
I0
sI12788
I1
sI12789
I0
sI12790
I0
sI12791
I1
sI12792
I1
sI12793
I1
sI12794
I3
sI12795
I1
sI12796
I0
sI12797
I3
sI12798
I1
sI12799
I0
sI12800
I0
sI12801
I0
sI12802
I0
sI12803
I1
sI12804
I1
sI12805
I1
sI12806
I2
sI12807
I1
sI12808
I1
sI12809
I1
sI12810
I3
sI12811
I0
sI12812
I1
sI12813
I1
sI12814
I0
sI12815
I2
sI12816
I1
sI12817
I1
sI12818
I0
sI12819
I0
sI12820
I0
sI12821
I0
sI12822
I0
sI12823
I0
sI12824
I0
sI12825
I0
sI12826
I0
sI12827
I0
sI12828
I0
sI12829
I0
sI12830
I0
sI12831
I0
sI12832
I0
sI12833
I0
sI12834
I0
sI12835
I2
sI12836
I0
sI12837
I0
sI12838
I0
sI12839
I1
sI12840
I0
sI12841
I0
sI12842
I0
sI12843
I0
sI12844
I0
sI12845
I1
sI12846
I4
sI12847
I1
sI12848
I0
sI12849
I4
sI12850
I1
sI12851
I4
sI12852
I3
sI12853
I1
sI12854
I1
sI12855
I1
sI12856
I1
sI12857
I1
sI12858
I0
sI12859
I1
sI12860
I0
sI12861
I1
sI12862
I0
sI12863
I1
sI12864
I1
sI12865
I1
sI12866
I0
sI12867
I0
sI12868
I0
sI12869
I0
sI12870
I1
sI12871
I1
sI12872
I0
sI12873
I0
sI12874
I3
sI12875
I0
sI12876
I0
sI12877
I2
sI12878
I2
sI12879
I5
sI12880
I0
sI12881
I0
sI12882
I0
sI12883
I0
sI12884
I0
sI12885
I0
sI12886
I0
sI12887
I0
sI12888
I4
sI12889
I2
sI12890
I0
sI12891
I1
sI12892
I0
sI12893
I1
sI12894
I1
sI12895
I3
sI12896
I3
sI12897
I0
sI12898
I4
sI12899
I1
sI12900
I1
sI12901
I1
sI12902
I2
sI12903
I0
sI12904
I0
sI12905
I0
sI12906
I4
sI12907
I0
sI12908
I0
sI12909
I0
sI12910
I0
sI12911
I0
sI12912
I0
sI12913
I0
sI12914
I5
sI12915
I3
sI12916
I0
sI12917
I4
sI12918
I4
sI12919
I0
sI12920
I0
sI12921
I0
sI12922
I3
sI12923
I2
sI12924
I4
sI12925
I4
sI12926
I4
sI12927
I4
sI12928
I4
sI12929
I4
sI12930
I2
sI12931
I3
sI12932
I0
sI12933
I2
sI12934
I0
sI12935
I1
sI12936
I0
sI12937
I1
sI12938
I0
sI12939
I4
sI12940
I4
sI12941
I4
sI12942
I4
sI12943
I4
sI12944
I4
sI12945
I2
sI12946
I0
sI12947
I4
sI12948
I0
sI12949
I0
sI12950
I0
sI12951
I0
sI12952
I2
sI12953
I1
sI12954
I0
sI12955
I0
sI12956
I3
sI12957
I2
sI12958
I0
sI12959
I0
sI12960
I0
sI12961
I0
sI12962
I0
sI12963
I0
sI12964
I0
sI12965
I0
sI12966
I0
sI12967
I0
sI12968
I0
sI12969
I0
sI12970
I0
sI12971
I0
sI12972
I0
sI12973
I0
sI12974
I0
sI12975
I0
sI12976
I2
sI12977
I4
sI12978
I0
sI12979
I0
sI12980
I0
sI12981
I0
sI12982
I2
sI12983
I0
sI12984
I2
sI12985
I2
sI12986
I2
sI12987
I1
sI12988
I2
sI12989
I0
sI12990
I0
sI12991
I0
sI12992
I0
sI12993
I0
sI12994
I0
sI12995
I0
sI12996
I0
sI12997
I0
sI12998
I0
sI12999
I0
sI13000
I0
sI13001
I1
sI13002
I4
sI13003
I1
sI13004
I3
sI13005
I1
sI13006
I4
sI13007
I2
sI13008
I0
sI13009
I0
sI13010
I0
sI13011
I0
sI13012
I1
sI13013
I0
sI13014
I0
sI13015
I0
sI13016
I0
sI13017
I0
sI13018
I0
sI13019
I0
sI13020
I0
sI13021
I0
sI13022
I1
sI13023
I1
sI13024
I0
sI13025
I0
sI13026
I4
sI13027
I0
sI13028
I0
sI13029
I1
sI13030
I0
sI13031
I0
sI13032
I3
sI13033
I0
sI13034
I3
sI13035
I0
sI13036
I0
sI13037
I2
sI13038
I0
sI13039
I0
sI13040
I0
sI13041
I1
sI13042
I1
sI13043
I2
sI13044
I0
sI13045
I2
sI13046
I0
sI13047
I3
sI13048
I1
sI13049
I0
sI13050
I3
sI13051
I2
sI13052
I2
sI13053
I0
sI13054
I2
sI13055
I1
sI13056
I3
sI13057
I2
sI13058
I0
sI13059
I2
sI13060
I0
sI13061
I0
sI13062
I2
sI13063
I1
sI13064
I3
sI13065
I0
sI13066
I1
sI13067
I4
sI13068
I0
sI13069
I1
sI13070
I3
sI13071
I0
sI13072
I1
sI13073
I3
sI13074
I2
sI13075
I0
sI13076
I3
sI13077
I1
sI13078
I4
sI13079
I4
sI13080
I4
sI13081
I0
sI13082
I0
sI13083
I0
sI13084
I0
sI13085
I0
sI13086
I0
sI13087
I0
sI13088
I1
sI13089
I1
sI13090
I4
sI13091
I3
sI13092
I0
sI13093
I1
sI13094
I1
sI13095
I1
sI13096
I1
sI13097
I1
sI13098
I3
sI13099
I0
sI13100
I4
sI13101
I4
sI13102
I4
sI13103
I4
sI13104
I0
sI13105
I0
sI13106
I3
sI13107
I3
sI13108
I0
sI13109
I3
sI13110
I4
sI13111
I5
sI13112
I5
sI13113
I0
sI13114
I0
sI13115
I0
sI13116
I0
sI13117
I0
sI13118
I0
sI13119
I3
sI13120
I0
sI13121
I0
sI13122
I4
sI13123
I0
sI13124
I1
sI13125
I1
sI13126
I3
sI13127
I1
sI13128
I2
sI13129
I0
sI13130
I0
sI13131
I1
sI13132
I0
sI13133
I1
sI13134
I0
sI13135
I0
sI13136
I0
sI13137
I0
sI13138
I0
sI13139
I1
sI13140
I2
sI13141
I4
sI13142
I0
sI13143
I0
sI13144
I1
sI13145
I0
sI13146
I2
sI13147
I0
sI13148
I1
sI13149
I3
sI13150
I3
sI13151
I0
sI13152
I2
sI13153
I1
sI13154
I1
sI13155
I0
sI13156
I3
sI13157
I0
sI13158
I0
sI13159
I0
sI13160
I0
sI13161
I3
sI13162
I1
sI13163
I0
sI13164
I3
sI13165
I3
sI13166
I0
sI13167
I0
sI13168
I3
sI13169
I1
sI13170
I0
sI13171
I0
sI13172
I0
sI13173
I1
sI13174
I0
sI13175
I0
sI13176
I0
sI13177
I2
sI13178
I4
sI13179
I3
sI13180
I4
sI13181
I1
sI13182
I0
sI13183
I3
sI13184
I0
sI13185
I2
sI13186
I0
sI13187
I0
sI13188
I3
sI13189
I3
sI13190
I3
sI13191
I3
sI13192
I0
sI13193
I0
sI13194
I3
sI13195
I3
sI13196
I0
sI13197
I0
sI13198
I0
sI13199
I3
sI13200
I0
sI13201
I0
sI13202
I0
sI13203
I0
sI13204
I0
sI13205
I0
sI13206
I4
sI13207
I2
sI13208
I2
sI13209
I0
sI13210
I3
sI13211
I1
sI13212
I1
sI13213
I1
sI13214
I1
sI13215
I1
sI13216
I1
sI13217
I4
sI13218
I3
sI13219
I1
sI13220
I1
sI13221
I1
sI13222
I1
sI13223
I1
sI13224
I3
sI13225
I3
sI13226
I1
sI13227
I2
sI13228
I4
sI13229
I3
sI13230
I1
sI13231
I0
sI13232
I0
sI13233
I0
sI13234
I0
sI13235
I0
sI13236
I0
sI13237
I0
sI13238
I0
sI13239
I0
sI13240
I0
sI13241
I0
sI13242
I0
sI13243
I0
sI13244
I4
sI13245
I3
sI13246
I3
sI13247
I0
sI13248
I0
sI13249
I3
sI13250
I0
sI13251
I1
sI13252
I1
sI13253
I4
sI13254
I3
sI13255
I3
sI13256
I3
sI13257
I0
sI13258
I0
sI13259
I0
sI13260
I0
sI13261
I0
sI13262
I0
sI13263
I0
sI13264
I1
sI13265
I0
sI13266
I2
sI13267
I3
sI13268
I1
sI13269
I2
sI13270
I3
sI13271
I2
sI13272
I2
sI13273
I3
sI13274
I0
sI13275
I3
sI13276
I0
sI13277
I2
sI13278
I1
sI13279
I2
sI13280
I3
sI13281
I3
sI13282
I2
sI13283
I3
sI13284
I4
sI13285
I2
sI13286
I0
sI13287
I0
sI13288
I0
sI13289
I3
sI13290
I0
sI13291
I2
sI13292
I3
sI13293
I3
sI13294
I1
sI13295
I1
sI13296
I1
sI13297
I0
sI13298
I2
sI13299
I4
sI13300
I1
sI13301
I0
sI13302
I2
sI13303
I2
sI13304
I0
sI13305
I4
sI13306
I3
sI13307
I3
sI13308
I2
sI13309
I3
sI13310
I3
sI13311
I3
sI13312
I2
sI13313
I3
sI13314
I3
sI13315
I0
sI13316
I0
sI13317
I3
sI13318
I3
sI13319
I3
sI13320
I3
sI13321
I2
sI13322
I2
sI13323
I3
sI13324
I3
sI13325
I3
sI13326
I0
sI13327
I3
sI13328
I2
sI13329
I0
sI13330
I0
sI13331
I3
sI13332
I2
sI13333
I2
sI13334
I0
sI13335
I0
sI13336
I2
sI13337
I3
sI13338
I3
sI13339
I0
sI13340
I0
sI13341
I0
sI13342
I0
sI13343
I0
sI13344
I1
sI13345
I4
sI13346
I0
sI13347
I3
sI13348
I0
sI13349
I2
sI13350
I0
sI13351
I2
sI13352
I0
sI13353
I0
sI13354
I0
sI13355
I2
sI13356
I0
sI13357
I2
sI13358
I0
sI13359
I0
sI13360
I2
sI13361
I0
sI13362
I2
sI13363
I2
sI13364
I0
sI13365
I2
sI13366
I0
sI13367
I0
sI13368
I4
sI13369
I1
sI13370
I3
sI13371
I0
sI13372
I3
sI13373
I0
sI13374
I0
sI13375
I1
sI13376
I0
sI13377
I0
sI13378
I0
sI13379
I3
sI13380
I0
sI13381
I0
sI13382
I1
sI13383
I2
sI13384
I0
sI13385
I0
sI13386
I1
sI13387
I3
sI13388
I0
sI13389
I1
sI13390
I0
sI13391
I0
sI13392
I0
sI13393
I1
sI13394
I0
sI13395
I0
sI13396
I1
sI13397
I3
sI13398
I1
sI13399
I1
sI13400
I1
sI13401
I1
sI13402
I0
sI13403
I4
sI13404
I1
sI13405
I4
sI13406
I4
sI13407
I0
sI13408
I0
sI13409
I0
sI13410
I1
sI13411
I1
sI13412
I0
sI13413
I1
sI13414
I1
sI13415
I4
sI13416
I2
sI13417
I3
sI13418
I1
sI13419
I0
sI13420
I1
sI13421
I1
sI13422
I0
sI13423
I1
sI13424
I0
sI13425
I0
sI13426
I0
sI13427
I0
sI13428
I3
sI13429
I1
sI13430
I2
sI13431
I3
sI13432
I1
sI13433
I0
sI13434
I0
sI13435
I0
sI13436
I1
sI13437
I1
sI13438
I2
sI13439
I2
sI13440
I2
sI13441
I2
sI13442
I0
sI13443
I3
sI13444
I0
sI13445
I0
sI13446
I0
sI13447
I0
sI13448
I0
sI13449
I0
sI13450
I0
sI13451
I0
sI13452
I1
sI13453
I1
sI13454
I2
sI13455
I2
sI13456
I2
sI13457
I0
sI13458
I1
sI13459
I0
sI13460
I0
sI13461
I0
sI13462
I0
sI13463
I1
sI13464
I2
sI13465
I0
sI13466
I0
sI13467
I4
sI13468
I1
sI13469
I0
sI13470
I4
sI13471
I1
sI13472
I0
sI13473
I4
sI13474
I1
sI13475
I0
sI13476
I0
sI13477
I0
sI13478
I0
sI13479
I0
sI13480
I1
sI13481
I2
sI13482
I0
sI13483
I1
sI13484
I0
sI13485
I0
sI13486
I1
sI13487
I1
sI13488
I0
sI13489
I3
sI13490
I3
sI13491
I3
sI13492
I2
sI13493
I2
sI13494
I0
sI13495
I2
sI13496
I2
sI13497
I1
sI13498
I2
sI13499
I2
sI13500
I2
sI13501
I2
sI13502
I1
sI13503
I3
sI13504
I0
sI13505
I0
sI13506
I3
sI13507
I0
sI13508
I3
sI13509
I3
sI13510
I3
sI13511
I0
sI13512
I0
sI13513
I5
sI13514
I0
sI13515
I3
sI13516
I3
sI13517
I4
sI13518
I0
sI13519
I3
sI13520
I0
sI13521
I2
sI13522
I3
sI13523
I0
sI13524
I3
sI13525
I0
sI13526
I1
sI13527
I0
sI13528
I0
sI13529
I3
sI13530
I0
sI13531
I3
sI13532
I3
sI13533
I2
sI13534
I3
sI13535
I3
sI13536
I2
sI13537
I2
sI13538
I3
sI13539
I2
sI13540
I7
sI13541
I0
sI13542
I2
sI13543
I3
sI13544
I1
sI13545
I3
sI13546
I0
sI13547
I2
sI13548
I3
sI13549
I0
sI13550
I2
sI13551
I0
sI13552
I2
sI13553
I1
sI13554
I1
sI13555
I2
sI13556
I3
sI13557
I1
sI13558
I3
sI13559
I0
sI13560
I5
sI13561
I3
sI13562
I0
sI13563
I2
sI13564
I3
sI13565
I2
sI13566
I2
sI13567
I0
sI13568
I0
sI13569
I0
sI13570
I0
sI13571
I3
sI13572
I0
sI13573
I0
sI13574
I0
sI13575
I0
sI13576
I0
sI13577
I0
sI13578
I0
sI13579
I2
sI13580
I4
sI13581
I0
sI13582
I4
sI13583
I5
sI13584
I4
sI13585
I0
sI13586
I3
sI13587
I3
sI13588
I0
sI13589
I3
sI13590
I1
sI13591
I3
sI13592
I1
sI13593
I5
sI13594
I3
sI13595
I3
sI13596
I0
sI13597
I1
sI13598
I0
sI13599
I1
sI13600
I0
sI13601
I2
sI13602
I0
sI13603
I3
sI13604
I3
sI13605
I1
sI13606
I0
sI13607
I2
sI13608
I0
sI13609
I3
sI13610
I0
sI13611
I2
sI13612
I0
sI13613
I1
sI13614
I1
sI13615
I0
sI13616
I0
sI13617
I1
sI13618
I2
sI13619
I0
sI13620
I1
sI13621
I2
sI13622
I1
sI13623
I0
sI13624
I0
sI13625
I4
sI13626
I3
sI13627
I2
sI13628
I2
sI13629
I2
sI13630
I0
sI13631
I2
sI13632
I1
sI13633
I2
sI13634
I3
sI13635
I2
sI13636
I2
sI13637
I0
sI13638
I2
sI13639
I2
sI13640
I2
sI13641
I1
sI13642
I0
sI13643
I3
sI13644
I0
sI13645
I3
sI13646
I0
sI13647
I0
sI13648
I0
sI13649
I2
sI13650
I0
sI13651
I0
sI13652
I0
sI13653
I0
sI13654
I0
sI13655
I1
sI13656
I3
sI13657
I3
sI13658
I0
sI13659
I2
sI13660
I1
sI13661
I2
sI13662
I2
sI13663
I0
sI13664
I0
sI13665
I0
sI13666
I0
sI13667
I0
sI13668
I0
sI13669
I2
sI13670
I3
sI13671
I2
sI13672
I2
sI13673
I2
sI13674
I1
sI13675
I1
sI13676
I0
sI13677
I3
sI13678
I0
sI13679
I3
sI13680
I4
sI13681
I3
sI13682
I0
sI13683
I0
sI13684
I0
sI13685
I0
sI13686
I0
sI13687
I0
sI13688
I0
sI13689
I0
sI13690
I0
sI13691
I0
sI13692
I0
sI13693
I0
sI13694
I0
sI13695
I0
sI13696
I0
sI13697
I0
sI13698
I1
sI13699
I2
sI13700
I1
sI13701
I0
sI13702
I3
sI13703
I3
sI13704
I3
sI13705
I5
sI13706
I5
sI13707
I0
sI13708
I3
sI13709
I3
sI13710
I0
sI13711
I3
sI13712
I0
sI13713
I5
sI13714
I0
sI13715
I2
sI13716
I2
sI13717
I1
sI13718
I3
sI13719
I0
sI13720
I3
sI13721
I3
sI13722
I2
sI13723
I2
sI13724
I2
sI13725
I0
sI13726
I1
sI13727
I4
sI13728
I0
sI13729
I3
sI13730
I2
sI13731
I1
sI13732
I2
sI13733
I1
sI13734
I4
sI13735
I0
sI13736
I4
sI13737
I2
sI13738
I0
sI13739
I3
sI13740
I0
sI13741
I2
sI13742
I2
sI13743
I0
sI13744
I0
sI13745
I3
sI13746
I0
sI13747
I0
sI13748
I2
sI13749
I4
sI13750
I1
sI13751
I0
sI13752
I0
sI13753
I0
sI13754
I3
sI13755
I3
sI13756
I2
sI13757
I0
sI13758
I2
sI13759
I1
sI13760
I2
sI13761
I2
sI13762
I0
sI13763
I0
sI13764
I0
sI13765
I0
sI13766
I0
sI13767
I0
sI13768
I0
sI13769
I0
sI13770
I1
sI13771
I0
sI13772
I0
sI13773
I2
sI13774
I0
sI13775
I2
sI13776
I0
sI13777
I4
sI13778
I0
sI13779
I1
sI13780
I1
sI13781
I0
sI13782
I0
sI13783
I0
sI13784
I0
sI13785
I2
sI13786
I2
sI13787
I3
sI13788
I3
sI13789
I3
sI13790
I2
sI13791
I2
sI13792
I0
sI13793
I0
sI13794
I3
sI13795
I2
sI13796
I2
sI13797
I0
sI13798
I0
sI13799
I0
sI13800
I0
sI13801
I0
sI13802
I0
sI13803
I0
sI13804
I0
sI13805
I0
sI13806
I0
sI13807
I0
sI13808
I0
sI13809
I3
sI13810
I0
sI13811
I0
sI13812
I4
sI13813
I0
sI13814
I0
sI13815
I0
sI13816
I0
sI13817
I3
sI13818
I3
sI13819
I2
sI13820
I0
sI13821
I3
sI13822
I1
sI13823
I3
s.