(dp0
I0
I0
sI1
I0
sI2
I0
sI3
I0
sI4
I0
sI5
I5
sI6
I0
sI7
I0
sI8
I0
sI9
I0
sI10
I0
sI11
I4
sI12
I0
sI13
I0
sI14
I0
sI15
I0
sI16
I0
sI17
I0
sI18
I0
sI19
I0
sI20
I0
sI21
I0
sI22
I0
sI23
I0
sI24
I0
sI25
I0
sI26
I0
sI27
I0
sI28
I0
sI29
I0
sI30
I0
sI31
I0
sI32
I0
sI33
I0
sI34
I1
sI35
I0
sI36
I0
sI37
I0
sI38
I0
sI39
I0
sI40
I0
sI41
I0
sI42
I0
sI43
I4
sI44
I0
sI45
I0
sI46
I0
sI47
I5
sI48
I0
sI49
I0
sI50
I0
sI51
I0
sI52
I0
sI53
I0
sI54
I0
sI55
I0
sI56
I7
sI57
I0
sI58
I5
sI59
I2
sI60
I5
sI61
I0
sI62
I0
sI63
I0
sI64
I5
sI65
I4
sI66
I0
sI67
I7
sI68
I0
sI69
I0
sI70
I0
sI71
I2
sI72
I0
sI73
I0
sI74
I0
sI75
I1
sI76
I0
sI77
I0
sI78
I0
sI79
I2
sI80
I0
sI81
I2
sI82
I1
sI83
I0
sI84
I0
sI85
I7
sI86
I0
sI87
I4
sI88
I0
sI89
I0
sI90
I6
sI91
I0
sI92
I7
sI93
I0
sI94
I0
sI95
I2
sI96
I0
sI97
I0
sI98
I0
sI99
I6
sI100
I0
sI101
I0
sI102
I2
sI103
I4
sI104
I0
sI105
I7
sI106
I0
sI107
I2
sI108
I0
sI109
I0
sI110
I0
sI111
I6
sI112
I0
sI113
I0
sI114
I0
sI115
I0
sI116
I0
sI117
I2
sI118
I0
sI119
I0
sI120
I0
sI121
I0
sI122
I0
sI123
I0
sI124
I0
sI125
I0
sI126
I0
sI127
I0
sI128
I2
sI129
I0
sI130
I3
sI131
I6
sI132
I5
sI133
I0
sI134
I0
sI135
I0
sI136
I3
sI137
I1
sI138
I1
sI139
I0
sI140
I0
sI141
I0
sI142
I0
sI143
I4
sI144
I2
sI145
I0
sI146
I1
sI147
I3
sI148
I0
sI149
I0
sI150
I0
sI151
I0
sI152
I0
sI153
I4
sI154
I0
sI155
I3
sI156
I0
sI157
I7
sI158
I0
sI159
I0
sI160
I1
sI161
I0
sI162
I0
sI163
I0
sI164
I0
sI165
I0
sI166
I6
sI167
I2
sI168
I1
sI169
I0
sI170
I0
sI171
I0
sI172
I0
sI173
I0
sI174
I0
sI175
I1
sI176
I0
sI177
I1
sI178
I0
sI179
I5
sI180
I0
sI181
I0
sI182
I0
sI183
I1
sI184
I3
sI185
I0
sI186
I0
sI187
I1
sI188
I1
sI189
I0
sI190
I6
sI191
I0
sI192
I0
sI193
I0
sI194
I2
sI195
I3
sI196
I4
sI197
I0
sI198
I0
sI199
I0
sI200
I0
sI201
I0
sI202
I0
sI203
I4
sI204
I4
sI205
I3
sI206
I0
sI207
I0
sI208
I0
sI209
I0
sI210
I2
sI211
I3
sI212
I4
sI213
I0
sI214
I1
sI215
I0
sI216
I0
sI217
I0
sI218
I0
sI219
I2
sI220
I0
sI221
I0
sI222
I2
sI223
I0
sI224
I0
sI225
I1
sI226
I0
sI227
I1
sI228
I0
sI229
I0
sI230
I0
sI231
I0
sI232
I0
sI233
I0
sI234
I4
sI235
I0
sI236
I0
sI237
I0
sI238
I0
sI239
I7
sI240
I7
sI241
I0
sI242
I2
sI243
I4
sI244
I6
sI245
I4
sI246
I0
sI247
I4
sI248
I3
sI249
I0
sI250
I7
sI251
I0
sI252
I4
sI253
I0
sI254
I0
sI255
I0
sI256
I0
sI257
I0
sI258
I0
sI259
I0
sI260
I0
sI261
I0
sI262
I0
sI263
I0
sI264
I0
sI265
I0
sI266
I0
sI267
I0
sI268
I0
sI269
I0
sI270
I0
sI271
I0
sI272
I2
sI273
I0
sI274
I2
sI275
I0
sI276
I0
sI277
I0
sI278
I0
sI279
I0
sI280
I4
sI281
I0
sI282
I4
sI283
I0
sI284
I0
sI285
I0
sI286
I3
sI287
I3
sI288
I1
sI289
I0
sI290
I0
sI291
I0
sI292
I0
sI293
I4
sI294
I3
sI295
I1
sI296
I1
sI297
I4
sI298
I0
sI299
I0
sI300
I0
sI301
I0
sI302
I0
sI303
I2
sI304
I0
sI305
I3
sI306
I0
sI307
I2
sI308
I0
sI309
I0
sI310
I0
sI311
I2
sI312
I0
sI313
I2
sI314
I0
sI315
I0
sI316
I2
sI317
I0
sI318
I0
sI319
I1
sI320
I0
sI321
I0
sI322
I1
sI323
I0
sI324
I0
sI325
I3
sI326
I3
sI327
I0
sI328
I0
sI329
I1
sI330
I0
sI331
I0
sI332
I0
sI333
I0
sI334
I0
sI335
I0
sI336
I1
sI337
I0
sI338
I3
sI339
I1
sI340
I3
sI341
I0
sI342
I0
sI343
I0
sI344
I2
sI345
I1
sI346
I7
sI347
I6
sI348
I3
sI349
I4
sI350
I0
sI351
I0
sI352
I0
sI353
I0
sI354
I0
sI355
I1
sI356
I0
sI357
I0
sI358
I0
sI359
I1
sI360
I0
sI361
I0
sI362
I1
sI363
I0
sI364
I0
sI365
I0
sI366
I0
sI367
I0
sI368
I1
sI369
I0
sI370
I6
sI371
I4
sI372
I1
sI373
I0
sI374
I0
sI375
I0
sI376
I2
sI377
I7
sI378
I0
sI379
I1
sI380
I6
sI381
I4
sI382
I0
sI383
I0
sI384
I0
sI385
I4
sI386
I2
sI387
I1
sI388
I0
sI389
I1
sI390
I0
sI391
I2
sI392
I0
sI393
I7
sI394
I0
sI395
I1
sI396
I0
sI397
I4
sI398
I3
sI399
I0
sI400
I1
sI401
I0
sI402
I0
sI403
I0
sI404
I4
sI405
I2
sI406
I4
sI407
I4
sI408
I3
sI409
I0
sI410
I0
sI411
I4
sI412
I0
sI413
I0
sI414
I0
sI415
I0
sI416
I5
sI417
I0
sI418
I3
sI419
I0
sI420
I0
sI421
I0
sI422
I0
sI423
I0
sI424
I0
sI425
I3
sI426
I4
sI427
I1
sI428
I0
sI429
I1
sI430
I4
sI431
I0
sI432
I0
sI433
I1
sI434
I0
sI435
I4
sI436
I7
sI437
I0
sI438
I0
sI439
I0
sI440
I0
sI441
I0
sI442
I0
sI443
I4
sI444
I0
sI445
I0
sI446
I3
sI447
I1
sI448
I6
sI449
I1
sI450
I0
sI451
I6
sI452
I6
sI453
I2
sI454
I3
sI455
I3
sI456
I0
sI457
I0
sI458
I0
sI459
I1
sI460
I3
sI461
I2
sI462
I6
sI463
I0
sI464
I2
sI465
I0
sI466
I0
sI467
I0
sI468
I1
sI469
I0
sI470
I0
sI471
I3
sI472
I0
sI473
I2
sI474
I4
sI475
I4
sI476
I7
sI477
I3
sI478
I1
sI479
I0
sI480
I0
sI481
I0
sI482
I3
sI483
I0
sI484
I1
sI485
I0
sI486
I4
sI487
I0
sI488
I4
sI489
I4
sI490
I0
sI491
I0
sI492
I1
sI493
I0
sI494
I0
sI495
I0
sI496
I6
sI497
I7
sI498
I1
sI499
I2
sI500
I0
sI501
I0
sI502
I1
sI503
I3
sI504
I6
sI505
I1
sI506
I0
sI507
I0
sI508
I1
sI509
I7
sI510
I0
sI511
I0
sI512
I0
sI513
I2
sI514
I0
sI515
I0
sI516
I0
sI517
I1
sI518
I7
sI519
I7
sI520
I5
sI521
I0
sI522
I0
sI523
I0
sI524
I1
sI525
I0
sI526
I4
sI527
I0
sI528
I1
sI529
I2
sI530
I0
sI531
I3
sI532
I0
sI533
I1
sI534
I1
sI535
I0
sI536
I1
sI537
I0
sI538
I0
sI539
I0
sI540
I2
sI541
I0
sI542
I0
sI543
I2
sI544
I2
sI545
I4
sI546
I0
sI547
I0
sI548
I3
sI549
I7
sI550
I4
sI551
I0
sI552
I0
sI553
I0
sI554
I0
sI555
I0
sI556
I0
sI557
I6
sI558
I2
sI559
I7
sI560
I7
sI561
I2
sI562
I7
sI563
I2
sI564
I0
sI565
I0
sI566
I0
sI567
I0
sI568
I1
sI569
I1
sI570
I1
sI571
I2
sI572
I0
sI573
I0
sI574
I0
sI575
I0
sI576
I2
sI577
I4
sI578
I2
sI579
I4
sI580
I0
sI581
I0
sI582
I2
sI583
I0
sI584
I0
sI585
I0
sI586
I0
sI587
I0
sI588
I0
sI589
I0
sI590
I0
sI591
I0
sI592
I2
sI593
I6
sI594
I1
sI595
I3
sI596
I2
sI597
I0
sI598
I0
sI599
I2
sI600
I1
sI601
I2
sI602
I0
sI603
I0
sI604
I0
sI605
I4
sI606
I0
sI607
I0
sI608
I1
sI609
I0
sI610
I0
sI611
I0
sI612
I0
sI613
I8
sI614
I0
sI615
I6
sI616
I2
sI617
I0
sI618
I0
sI619
I0
sI620
I1
sI621
I0
sI622
I0
sI623
I0
sI624
I0
sI625
I0
sI626
I3
sI627
I0
sI628
I2
sI629
I0
sI630
I0
sI631
I4
sI632
I3
sI633
I2
sI634
I1
sI635
I2
sI636
I0
sI637
I3
sI638
I1
sI639
I3
sI640
I0
sI641
I0
sI642
I6
sI643
I2
sI644
I0
sI645
I1
sI646
I0
sI647
I3
sI648
I0
sI649
I0
sI650
I0
sI651
I0
sI652
I0
sI653
I0
sI654
I0
sI655
I6
sI656
I2
sI657
I0
sI658
I3
sI659
I6
sI660
I0
sI661
I6
sI662
I6
sI663
I3
sI664
I1
sI665
I0
sI666
I0
sI667
I0
sI668
I0
sI669
I0
sI670
I0
sI671
I0
sI672
I0
sI673
I3
sI674
I0
sI675
I2
sI676
I4
sI677
I4
sI678
I6
sI679
I1
sI680
I3
sI681
I0
sI682
I2
sI683
I1
sI684
I4
sI685
I0
sI686
I0
sI687
I0
sI688
I0
sI689
I0
sI690
I0
sI691
I0
sI692
I0
sI693
I0
sI694
I5
sI695
I5
sI696
I4
sI697
I3
sI698
I0
sI699
I1
sI700
I0
sI701
I1
sI702
I2
sI703
I0
sI704
I1
sI705
I4
sI706
I1
sI707
I0
sI708
I2
sI709
I0
sI710
I0
sI711
I0
sI712
I0
sI713
I0
sI714
I0
sI715
I0
sI716
I0
sI717
I0
sI718
I0
sI719
I4
sI720
I2
sI721
I6
sI722
I3
sI723
I0
sI724
I0
sI725
I7
sI726
I1
sI727
I2
sI728
I0
sI729
I0
sI730
I0
sI731
I2
sI732
I0
sI733
I0
sI734
I4
sI735
I0
sI736
I0
sI737
I0
sI738
I0
sI739
I0
sI740
I4
sI741
I0
sI742
I6
sI743
I5
sI744
I1
sI745
I4
sI746
I2
sI747
I3
sI748
I6
sI749
I0
sI750
I1
sI751
I4
sI752
I1
sI753
I7
sI754
I1
sI755
I1
sI756
I0
sI757
I3
sI758
I1
sI759
I0
sI760
I2
sI761
I0
sI762
I4
sI763
I1
sI764
I0
sI765
I6
sI766
I0
sI767
I0
sI768
I0
sI769
I2
sI770
I0
sI771
I0
sI772
I0
sI773
I0
sI774
I0
sI775
I3
sI776
I2
sI777
I4
sI778
I0
sI779
I6
sI780
I6
sI781
I0
sI782
I0
sI783
I0
sI784
I1
sI785
I5
sI786
I2
sI787
I1
sI788
I0
sI789
I0
sI790
I0
sI791
I3
sI792
I0
sI793
I0
sI794
I2
sI795
I4
sI796
I3
sI797
I5
sI798
I5
sI799
I4
sI800
I0
sI801
I2
sI802
I0
sI803
I0
sI804
I7
sI805
I0
sI806
I0
sI807
I0
sI808
I7
sI809
I0
sI810
I0
sI811
I3
sI812
I7
sI813
I0
sI814
I1
sI815
I3
sI816
I0
sI817
I1
sI818
I6
sI819
I4
sI820
I7
sI821
I0
sI822
I0
sI823
I4
sI824
I2
sI825
I1
sI826
I0
sI827
I0
sI828
I0
sI829
I0
sI830
I0
sI831
I0
sI832
I0
sI833
I0
sI834
I0
sI835
I0
sI836
I0
sI837
I4
sI838
I6
sI839
I6
sI840
I3
sI841
I5
sI842
I4
sI843
I2
sI844
I7
sI845
I6
sI846
I0
sI847
I0
sI848
I0
sI849
I0
sI850
I7
sI851
I0
sI852
I0
sI853
I0
sI854
I1
sI855
I0
sI856
I0
sI857
I0
sI858
I0
sI859
I0
sI860
I0
sI861
I0
sI862
I0
sI863
I0
sI864
I0
sI865
I0
sI866
I0
sI867
I1
sI868
I0
sI869
I1
sI870
I2
sI871
I4
sI872
I2
sI873
I0
sI874
I2
sI875
I1
sI876
I4
sI877
I4
sI878
I2
sI879
I2
sI880
I0
sI881
I3
sI882
I7
sI883
I0
sI884
I0
sI885
I0
sI886
I1
sI887
I6
sI888
I0
sI889
I0
sI890
I0
sI891
I2
sI892
I0
sI893
I0
sI894
I0
sI895
I4
sI896
I0
sI897
I2
sI898
I0
sI899
I0
sI900
I3
sI901
I0
sI902
I0
sI903
I2
sI904
I2
sI905
I2
sI906
I3
sI907
I3
sI908
I0
sI909
I2
sI910
I0
sI911
I2
sI912
I2
sI913
I2
sI914
I1
sI915
I0
sI916
I1
sI917
I3
sI918
I0
sI919
I3
sI920
I7
sI921
I0
sI922
I0
sI923
I0
sI924
I7
sI925
I0
sI926
I0
sI927
I7
sI928
I0
sI929
I0
sI930
I0
sI931
I0
sI932
I0
sI933
I0
sI934
I7
sI935
I1
sI936
I3
sI937
I5
sI938
I2
sI939
I1
sI940
I4
sI941
I3
sI942
I0
sI943
I3
sI944
I4
sI945
I3
sI946
I3
sI947
I0
sI948
I4
sI949
I1
sI950
I1
sI951
I5
sI952
I6
sI953
I0
sI954
I0
sI955
I3
sI956
I0
sI957
I1
sI958
I3
sI959
I0
sI960
I0
sI961
I0
sI962
I0
sI963
I0
sI964
I0
sI965
I0
sI966
I1
sI967
I0
sI968
I3
sI969
I0
sI970
I0
sI971
I0
sI972
I4
sI973
I0
sI974
I0
sI975
I4
sI976
I0
sI977
I4
sI978
I0
sI979
I0
sI980
I3
sI981
I3
sI982
I2
sI983
I0
sI984
I0
sI985
I1
sI986
I1
sI987
I2
sI988
I3
sI989
I0
sI990
I1
sI991
I2
sI992
I1
sI993
I4
sI994
I1
sI995
I1
sI996
I0
sI997
I0
sI998
I0
sI999
I0
sI1000
I2
sI1001
I0
sI1002
I0
sI1003
I0
sI1004
I1
sI1005
I2
sI1006
I2
sI1007
I4
sI1008
I0
sI1009
I4
sI1010
I0
sI1011
I0
sI1012
I0
sI1013
I0
sI1014
I0
sI1015
I3
sI1016
I0
sI1017
I0
sI1018
I4
sI1019
I2
sI1020
I4
sI1021
I4
sI1022
I0
sI1023
I0
sI1024
I0
sI1025
I0
sI1026
I5
sI1027
I8
sI1028
I0
sI1029
I3
sI1030
I1
sI1031
I0
sI1032
I4
sI1033
I2
sI1034
I1
sI1035
I0
sI1036
I2
sI1037
I6
sI1038
I6
sI1039
I0
sI1040
I3
sI1041
I3
sI1042
I6
sI1043
I0
sI1044
I0
sI1045
I0
sI1046
I0
sI1047
I0
sI1048
I0
sI1049
I0
sI1050
I0
sI1051
I0
sI1052
I0
sI1053
I5
sI1054
I7
sI1055
I6
sI1056
I0
sI1057
I0
sI1058
I0
sI1059
I7
sI1060
I0
sI1061
I0
sI1062
I0
sI1063
I0
sI1064
I0
sI1065
I0
sI1066
I0
sI1067
I0
sI1068
I0
sI1069
I3
sI1070
I2
sI1071
I0
sI1072
I2
sI1073
I6
sI1074
I6
sI1075
I0
sI1076
I0
sI1077
I0
sI1078
I0
sI1079
I3
sI1080
I4
sI1081
I3
sI1082
I6
sI1083
I6
sI1084
I7
sI1085
I5
sI1086
I0
sI1087
I3
sI1088
I0
sI1089
I0
sI1090
I2
sI1091
I2
sI1092
I1
sI1093
I2
sI1094
I1
sI1095
I0
sI1096
I0
sI1097
I0
sI1098
I3
sI1099
I3
sI1100
I0
sI1101
I0
sI1102
I0
sI1103
I1
sI1104
I1
sI1105
I0
sI1106
I0
sI1107
I0
sI1108
I0
sI1109
I0
sI1110
I0
sI1111
I0
sI1112
I0
sI1113
I0
sI1114
I0
sI1115
I2
sI1116
I2
sI1117
I0
sI1118
I0
sI1119
I1
sI1120
I3
sI1121
I7
sI1122
I7
sI1123
I3
sI1124
I0
sI1125
I0
sI1126
I4
sI1127
I0
sI1128
I0
sI1129
I0
sI1130
I4
sI1131
I3
sI1132
I3
sI1133
I1
sI1134
I4
sI1135
I0
sI1136
I2
sI1137
I0
sI1138
I0
sI1139
I2
sI1140
I0
sI1141
I0
sI1142
I0
sI1143
I0
sI1144
I0
sI1145
I3
sI1146
I1
sI1147
I1
sI1148
I0
sI1149
I2
sI1150
I0
sI1151
I0
sI1152
I0
sI1153
I0
sI1154
I0
sI1155
I0
sI1156
I3
sI1157
I0
sI1158
I0
sI1159
I1
sI1160
I0
sI1161
I1
sI1162
I6
sI1163
I0
sI1164
I1
sI1165
I4
sI1166
I0
sI1167
I3
sI1168
I6
sI1169
I0
sI1170
I3
sI1171
I1
sI1172
I5
sI1173
I4
sI1174
I7
sI1175
I4
sI1176
I3
sI1177
I0
sI1178
I0
sI1179
I3
sI1180
I2
sI1181
I1
sI1182
I0
sI1183
I3
sI1184
I1
sI1185
I0
sI1186
I4
sI1187
I0
sI1188
I0
sI1189
I0
sI1190
I0
sI1191
I1
sI1192
I0
sI1193
I0
sI1194
I3
sI1195
I3
sI1196
I2
sI1197
I6
sI1198
I1
sI1199
I0
sI1200
I0
sI1201
I0
sI1202
I0
sI1203
I3
sI1204
I0
sI1205
I5
sI1206
I5
sI1207
I0
sI1208
I0
sI1209
I0
sI1210
I0
sI1211
I0
sI1212
I1
sI1213
I3
sI1214
I2
sI1215
I3
sI1216
I2
sI1217
I1
sI1218
I6
sI1219
I8
sI1220
I1
sI1221
I0
sI1222
I2
sI1223
I2
sI1224
I0
sI1225
I2
sI1226
I2
sI1227
I6
sI1228
I4
sI1229
I6
sI1230
I6
sI1231
I3
sI1232
I0
sI1233
I3
sI1234
I4
sI1235
I0
sI1236
I1
sI1237
I0
sI1238
I3
sI1239
I1
sI1240
I1
sI1241
I0
sI1242
I4
sI1243
I0
sI1244
I4
sI1245
I0
sI1246
I0
sI1247
I0
sI1248
I0
sI1249
I7
sI1250
I1
sI1251
I1
sI1252
I0
sI1253
I0
sI1254
I0
sI1255
I3
sI1256
I0
sI1257
I0
sI1258
I0
sI1259
I0
sI1260
I4
sI1261
I0
sI1262
I0
sI1263
I0
sI1264
I3
sI1265
I0
sI1266
I7
sI1267
I0
sI1268
I4
sI1269
I1
sI1270
I6
sI1271
I2
sI1272
I3
sI1273
I4
sI1274
I2
sI1275
I0
sI1276
I0
sI1277
I2
sI1278
I1
sI1279
I0
sI1280
I0
sI1281
I0
sI1282
I5
sI1283
I0
sI1284
I0
sI1285
I2
sI1286
I2
sI1287
I2
sI1288
I0
sI1289
I0
sI1290
I0
sI1291
I0
sI1292
I0
sI1293
I0
sI1294
I0
sI1295
I1
sI1296
I0
sI1297
I0
sI1298
I0
sI1299
I0
sI1300
I0
sI1301
I0
sI1302
I2
sI1303
I4
sI1304
I0
sI1305
I2
sI1306
I3
sI1307
I2
sI1308
I0
sI1309
I1
sI1310
I0
sI1311
I6
sI1312
I1
sI1313
I7
sI1314
I2
sI1315
I0
sI1316
I4
sI1317
I0
sI1318
I2
sI1319
I2
sI1320
I0
sI1321
I3
sI1322
I0
sI1323
I1
sI1324
I1
sI1325
I0
sI1326
I0
sI1327
I0
sI1328
I0
sI1329
I0
sI1330
I2
sI1331
I2
sI1332
I0
sI1333
I3
sI1334
I0
sI1335
I0
sI1336
I0
sI1337
I0
sI1338
I0
sI1339
I0
sI1340
I0
sI1341
I0
sI1342
I0
sI1343
I1
sI1344
I1
sI1345
I3
sI1346
I0
sI1347
I1
sI1348
I0
sI1349
I1
sI1350
I1
sI1351
I0
sI1352
I0
sI1353
I2
sI1354
I4
sI1355
I0
sI1356
I0
sI1357
I7
sI1358
I0
sI1359
I0
sI1360
I2
sI1361
I1
sI1362
I0
sI1363
I0
sI1364
I0
sI1365
I3
sI1366
I0
sI1367
I3
sI1368
I0
sI1369
I3
sI1370
I1
sI1371
I1
sI1372
I0
sI1373
I3
sI1374
I2
sI1375
I6
sI1376
I0
sI1377
I0
sI1378
I2
sI1379
I2
sI1380
I3
sI1381
I3
sI1382
I2
sI1383
I2
sI1384
I5
sI1385
I1
sI1386
I4
sI1387
I3
sI1388
I2
sI1389
I5
sI1390
I0
sI1391
I6
sI1392
I3
sI1393
I3
sI1394
I0
sI1395
I2
sI1396
I6
sI1397
I0
sI1398
I3
sI1399
I0
sI1400
I0
sI1401
I1
sI1402
I1
sI1403
I1
sI1404
I0
sI1405
I0
sI1406
I1
sI1407
I2
sI1408
I4
sI1409
I0
sI1410
I0
sI1411
I0
sI1412
I0
sI1413
I5
sI1414
I0
sI1415
I0
sI1416
I0
sI1417
I0
sI1418
I2
sI1419
I0
sI1420
I4
sI1421
I0
sI1422
I0
sI1423
I0
sI1424
I2
sI1425
I7
sI1426
I4
sI1427
I4
sI1428
I3
sI1429
I2
sI1430
I2
sI1431
I3
sI1432
I1
sI1433
I0
sI1434
I1
sI1435
I0
sI1436
I0
sI1437
I4
sI1438
I0
sI1439
I6
sI1440
I0
sI1441
I3
sI1442
I1
sI1443
I7
sI1444
I2
sI1445
I3
sI1446
I0
sI1447
I2
sI1448
I1
sI1449
I1
sI1450
I1
sI1451
I2
sI1452
I1
sI1453
I2
sI1454
I0
sI1455
I0
sI1456
I0
sI1457
I3
sI1458
I0
sI1459
I0
sI1460
I4
sI1461
I7
sI1462
I0
sI1463
I2
sI1464
I0
sI1465
I0
sI1466
I0
sI1467
I0
sI1468
I0
sI1469
I0
sI1470
I0
sI1471
I2
sI1472
I0
sI1473
I0
sI1474
I1
sI1475
I0
sI1476
I0
sI1477
I1
sI1478
I2
sI1479
I2
sI1480
I0
sI1481
I2
sI1482
I1
sI1483
I0
sI1484
I0
sI1485
I2
sI1486
I0
sI1487
I0
sI1488
I4
sI1489
I0
sI1490
I0
sI1491
I0
sI1492
I0
sI1493
I0
sI1494
I0
sI1495
I1
sI1496
I0
sI1497
I0
sI1498
I0
sI1499
I0
sI1500
I0
sI1501
I0
sI1502
I4
sI1503
I0
sI1504
I0
sI1505
I3
sI1506
I5
sI1507
I7
sI1508
I1
sI1509
I0
sI1510
I1
sI1511
I3
sI1512
I6
sI1513
I3
sI1514
I0
sI1515
I1
sI1516
I0
sI1517
I1
sI1518
I3
sI1519
I2
sI1520
I7
sI1521
I0
sI1522
I3
sI1523
I3
sI1524
I4
sI1525
I4
sI1526
I1
sI1527
I1
sI1528
I1
sI1529
I2
sI1530
I1
sI1531
I0
sI1532
I0
sI1533
I3
sI1534
I3
sI1535
I2
sI1536
I3
sI1537
I0
sI1538
I0
sI1539
I3
sI1540
I0
sI1541
I3
sI1542
I2
sI1543
I0
sI1544
I1
sI1545
I5
sI1546
I0
sI1547
I7
sI1548
I1
sI1549
I0
sI1550
I1
sI1551
I1
sI1552
I2
sI1553
I1
sI1554
I0
sI1555
I0
sI1556
I1
sI1557
I0
sI1558
I0
sI1559
I0
sI1560
I0
sI1561
I0
sI1562
I0
sI1563
I0
sI1564
I0
sI1565
I4
sI1566
I0
sI1567
I5
sI1568
I4
sI1569
I0
sI1570
I0
sI1571
I0
sI1572
I6
sI1573
I0
sI1574
I0
sI1575
I0
sI1576
I2
sI1577
I0
sI1578
I3
sI1579
I0
sI1580
I1
sI1581
I5
sI1582
I0
sI1583
I3
sI1584
I2
sI1585
I2
sI1586
I0
sI1587
I6
sI1588
I4
sI1589
I0
sI1590
I3
sI1591
I0
sI1592
I0
sI1593
I3
sI1594
I1
sI1595
I2
sI1596
I0
sI1597
I1
sI1598
I3
sI1599
I1
sI1600
I3
sI1601
I3
sI1602
I0
sI1603
I4
sI1604
I3
sI1605
I0
sI1606
I1
sI1607
I3
sI1608
I2
sI1609
I6
sI1610
I0
sI1611
I3
sI1612
I0
sI1613
I0
sI1614
I0
sI1615
I0
sI1616
I1
sI1617
I0
sI1618
I0
sI1619
I0
sI1620
I3
sI1621
I0
sI1622
I0
sI1623
I0
sI1624
I0
sI1625
I0
sI1626
I0
sI1627
I0
sI1628
I0
sI1629
I1
sI1630
I0
sI1631
I6
sI1632
I0
sI1633
I0
sI1634
I3
sI1635
I0
sI1636
I0
sI1637
I0
sI1638
I0
sI1639
I1
sI1640
I0
sI1641
I0
sI1642
I0
sI1643
I0
sI1644
I0
sI1645
I0
sI1646
I0
sI1647
I4
sI1648
I1
sI1649
I0
sI1650
I0
sI1651
I3
sI1652
I0
sI1653
I0
sI1654
I3
sI1655
I0
sI1656
I0
sI1657
I2
sI1658
I0
sI1659
I3
sI1660
I0
sI1661
I0
sI1662
I4
sI1663
I0
sI1664
I2
sI1665
I1
sI1666
I0
sI1667
I2
sI1668
I7
sI1669
I0
sI1670
I1
sI1671
I1
sI1672
I3
sI1673
I2
sI1674
I3
sI1675
I2
sI1676
I1
sI1677
I3
sI1678
I0
sI1679
I6
sI1680
I5
sI1681
I2
sI1682
I0
sI1683
I4
sI1684
I4
sI1685
I1
sI1686
I5
sI1687
I4
sI1688
I1
sI1689
I4
sI1690
I7
sI1691
I3
sI1692
I3
sI1693
I7
sI1694
I0
sI1695
I1
sI1696
I0
sI1697
I0
sI1698
I1
sI1699
I0
sI1700
I0
sI1701
I0
sI1702
I1
sI1703
I0
sI1704
I1
sI1705
I0
sI1706
I1
sI1707
I0
sI1708
I2
sI1709
I0
sI1710
I0
sI1711
I1
sI1712
I1
sI1713
I2
sI1714
I0
sI1715
I2
sI1716
I1
sI1717
I1
sI1718
I2
sI1719
I0
sI1720
I2
sI1721
I3
sI1722
I0
sI1723
I0
sI1724
I3
sI1725
I0
sI1726
I0
sI1727
I2
sI1728
I0
sI1729
I0
sI1730
I0
sI1731
I4
sI1732
I0
sI1733
I0
sI1734
I0
sI1735
I0
sI1736
I4
sI1737
I0
sI1738
I0
sI1739
I0
sI1740
I4
sI1741
I0
sI1742
I3
sI1743
I0
sI1744
I0
sI1745
I1
sI1746
I0
sI1747
I0
sI1748
I0
sI1749
I4
sI1750
I2
sI1751
I7
sI1752
I2
sI1753
I1
sI1754
I0
sI1755
I6
sI1756
I6
sI1757
I1
sI1758
I3
sI1759
I6
sI1760
I2
sI1761
I2
sI1762
I3
sI1763
I2
sI1764
I1
sI1765
I3
sI1766
I0
sI1767
I1
sI1768
I5
sI1769
I1
sI1770
I1
sI1771
I7
sI1772
I1
sI1773
I0
sI1774
I4
sI1775
I1
sI1776
I2
sI1777
I2
sI1778
I0
sI1779
I0
sI1780
I0
sI1781
I2
sI1782
I1
sI1783
I6
sI1784
I6
sI1785
I0
sI1786
I3
sI1787
I0
sI1788
I5
sI1789
I1
sI1790
I4
sI1791
I3
sI1792
I4
sI1793
I0
sI1794
I0
sI1795
I0
sI1796
I0
sI1797
I1
sI1798
I2
sI1799
I3
sI1800
I0
sI1801
I1
sI1802
I1
sI1803
I1
sI1804
I0
sI1805
I1
sI1806
I0
sI1807
I1
sI1808
I0
sI1809
I0
sI1810
I0
sI1811
I2
sI1812
I0
sI1813
I2
sI1814
I0
sI1815
I0
sI1816
I4
sI1817
I4
sI1818
I0
sI1819
I0
sI1820
I0
sI1821
I4
sI1822
I0
sI1823
I4
sI1824
I0
sI1825
I4
sI1826
I1
sI1827
I1
sI1828
I0
sI1829
I0
sI1830
I0
sI1831
I0
sI1832
I0
sI1833
I3
sI1834
I0
sI1835
I3
sI1836
I0
sI1837
I0
sI1838
I4
sI1839
I0
sI1840
I6
sI1841
I0
sI1842
I0
sI1843
I0
sI1844
I0
sI1845
I0
sI1846
I3
sI1847
I1
sI1848
I3
sI1849
I1
sI1850
I0
sI1851
I0
sI1852
I3
sI1853
I2
sI1854
I2
sI1855
I2
sI1856
I0
sI1857
I0
sI1858
I2
sI1859
I3
sI1860
I7
sI1861
I1
sI1862
I3
sI1863
I2
sI1864
I2
sI1865
I6
sI1866
I4
sI1867
I1
sI1868
I3
sI1869
I3
sI1870
I4
sI1871
I0
sI1872
I3
sI1873
I2
sI1874
I2
sI1875
I5
sI1876
I0
sI1877
I0
sI1878
I1
sI1879
I0
sI1880
I5
sI1881
I7
sI1882
I0
sI1883
I2
sI1884
I1
sI1885
I1
sI1886
I1
sI1887
I1
sI1888
I0
sI1889
I3
sI1890
I0
sI1891
I0
sI1892
I0
sI1893
I1
sI1894
I1
sI1895
I0
sI1896
I4
sI1897
I0
sI1898
I7
sI1899
I0
sI1900
I0
sI1901
I0
sI1902
I0
sI1903
I3
sI1904
I3
sI1905
I5
sI1906
I0
sI1907
I2
sI1908
I1
sI1909
I6
sI1910
I2
sI1911
I2
sI1912
I0
sI1913
I2
sI1914
I2
sI1915
I0
sI1916
I2
sI1917
I0
sI1918
I0
sI1919
I4
sI1920
I0
sI1921
I3
sI1922
I0
sI1923
I0
sI1924
I0
sI1925
I0
sI1926
I0
sI1927
I0
sI1928
I0
sI1929
I3
sI1930
I2
sI1931
I0
sI1932
I0
sI1933
I0
sI1934
I0
sI1935
I2
sI1936
I0
sI1937
I0
sI1938
I0
sI1939
I0
sI1940
I0
sI1941
I0
sI1942
I0
sI1943
I2
sI1944
I4
sI1945
I0
sI1946
I0
sI1947
I7
sI1948
I3
sI1949
I3
sI1950
I2
sI1951
I1
sI1952
I1
sI1953
I3
sI1954
I6
sI1955
I2
sI1956
I2
sI1957
I4
sI1958
I0
sI1959
I3
sI1960
I0
sI1961
I3
sI1962
I0
sI1963
I0
sI1964
I7
sI1965
I0
sI1966
I4
sI1967
I3
sI1968
I1
sI1969
I1
sI1970
I0
sI1971
I1
sI1972
I1
sI1973
I6
sI1974
I7
sI1975
I1
sI1976
I3
sI1977
I0
sI1978
I0
sI1979
I4
sI1980
I4
sI1981
I0
sI1982
I5
sI1983
I3
sI1984
I0
sI1985
I0
sI1986
I0
sI1987
I0
sI1988
I0
sI1989
I0
sI1990
I2
sI1991
I0
sI1992
I0
sI1993
I0
sI1994
I0
sI1995
I0
sI1996
I0
sI1997
I1
sI1998
I0
sI1999
I0
sI2000
I2
sI2001
I2
sI2002
I0
sI2003
I2
sI2004
I2
sI2005
I2
sI2006
I1
sI2007
I0
sI2008
I2
sI2009
I2
sI2010
I4
sI2011
I6
sI2012
I1
sI2013
I0
sI2014
I4
sI2015
I0
sI2016
I0
sI2017
I4
sI2018
I4
sI2019
I5
sI2020
I2
sI2021
I4
sI2022
I0
sI2023
I0
sI2024
I0
sI2025
I0
sI2026
I0
sI2027
I0
sI2028
I0
sI2029
I0
sI2030
I0
sI2031
I2
sI2032
I0
sI2033
I0
sI2034
I1
sI2035
I0
sI2036
I4
sI2037
I3
sI2038
I0
sI2039
I1
sI2040
I1
sI2041
I0
sI2042
I0
sI2043
I0
sI2044
I0
sI2045
I0
sI2046
I0
sI2047
I2
sI2048
I0
sI2049
I0
sI2050
I4
sI2051
I0
sI2052
I3
sI2053
I0
sI2054
I0
sI2055
I0
sI2056
I1
sI2057
I0
sI2058
I2
sI2059
I1
sI2060
I1
sI2061
I0
sI2062
I2
sI2063
I1
sI2064
I2
sI2065
I5
sI2066
I1
sI2067
I1
sI2068
I6
sI2069
I4
sI2070
I1
sI2071
I3
sI2072
I0
sI2073
I7
sI2074
I4
sI2075
I3
sI2076
I0
sI2077
I3
sI2078
I1
sI2079
I0
sI2080
I6
sI2081
I3
sI2082
I1
sI2083
I1
sI2084
I5
sI2085
I2
sI2086
I2
sI2087
I1
sI2088
I2
sI2089
I0
sI2090
I0
sI2091
I0
sI2092
I1
sI2093
I2
sI2094
I1
sI2095
I0
sI2096
I4
sI2097
I0
sI2098
I0
sI2099
I0
sI2100
I3
sI2101
I3
sI2102
I4
sI2103
I0
sI2104
I0
sI2105
I8
sI2106
I0
sI2107
I1
sI2108
I0
sI2109
I3
sI2110
I3
sI2111
I4
sI2112
I2
sI2113
I6
sI2114
I2
sI2115
I0
sI2116
I3
sI2117
I1
sI2118
I0
sI2119
I2
sI2120
I6
sI2121
I0
sI2122
I0
sI2123
I0
sI2124
I0
sI2125
I0
sI2126
I0
sI2127
I0
sI2128
I0
sI2129
I2
sI2130
I0
sI2131
I0
sI2132
I0
sI2133
I0
sI2134
I1
sI2135
I3
sI2136
I3
sI2137
I0
sI2138
I0
sI2139
I0
sI2140
I4
sI2141
I4
sI2142
I0
sI2143
I0
sI2144
I0
sI2145
I0
sI2146
I0
sI2147
I4
sI2148
I1
sI2149
I0
sI2150
I0
sI2151
I0
sI2152
I0
sI2153
I0
sI2154
I0
sI2155
I5
sI2156
I0
sI2157
I0
sI2158
I3
sI2159
I1
sI2160
I0
sI2161
I4
sI2162
I0
sI2163
I2
sI2164
I1
sI2165
I3
sI2166
I7
sI2167
I1
sI2168
I0
sI2169
I3
sI2170
I4
sI2171
I0
sI2172
I5
sI2173
I2
sI2174
I6
sI2175
I2
sI2176
I3
sI2177
I2
sI2178
I6
sI2179
I1
sI2180
I2
sI2181
I5
sI2182
I0
sI2183
I3
sI2184
I5
sI2185
I6
sI2186
I4
sI2187
I3
sI2188
I1
sI2189
I7
sI2190
I1
sI2191
I4
sI2192
I0
sI2193
I1
sI2194
I1
sI2195
I0
sI2196
I3
sI2197
I3
sI2198
I0
sI2199
I4
sI2200
I1
sI2201
I1
sI2202
I0
sI2203
I2
sI2204
I0
sI2205
I2
sI2206
I0
sI2207
I0
sI2208
I2
sI2209
I0
sI2210
I1
sI2211
I1
sI2212
I2
sI2213
I0
sI2214
I0
sI2215
I4
sI2216
I3
sI2217
I4
sI2218
I0
sI2219
I3
sI2220
I4
sI2221
I1
sI2222
I4
sI2223
I4
sI2224
I4
sI2225
I3
sI2226
I0
sI2227
I0
sI2228
I0
sI2229
I0
sI2230
I0
sI2231
I6
sI2232
I0
sI2233
I0
sI2234
I0
sI2235
I0
sI2236
I0
sI2237
I0
sI2238
I1
sI2239
I1
sI2240
I6
sI2241
I2
sI2242
I1
sI2243
I2
sI2244
I1
sI2245
I2
sI2246
I6
sI2247
I5
sI2248
I0
sI2249
I2
sI2250
I2
sI2251
I2
sI2252
I3
sI2253
I1
sI2254
I0
sI2255
I0
sI2256
I0
sI2257
I0
sI2258
I0
sI2259
I0
sI2260
I0
sI2261
I0
sI2262
I0
sI2263
I0
sI2264
I0
sI2265
I0
sI2266
I0
sI2267
I0
sI2268
I4
sI2269
I0
sI2270
I0
sI2271
I0
sI2272
I0
sI2273
I5
sI2274
I5
sI2275
I0
sI2276
I2
sI2277
I0
sI2278
I0
sI2279
I0
sI2280
I4
sI2281
I0
sI2282
I0
sI2283
I3
sI2284
I0
sI2285
I0
sI2286
I0
sI2287
I3
sI2288
I1
sI2289
I3
sI2290
I0
sI2291
I0
sI2292
I2
sI2293
I2
sI2294
I1
sI2295
I1
sI2296
I0
sI2297
I6
sI2298
I2
sI2299
I1
sI2300
I2
sI2301
I3
sI2302
I4
sI2303
I2
sI2304
I2
sI2305
I0
sI2306
I3
sI2307
I4
sI2308
I1
sI2309
I1
sI2310
I1
sI2311
I0
sI2312
I1
sI2313
I1
sI2314
I5
sI2315
I4
sI2316
I3
sI2317
I7
sI2318
I1
sI2319
I7
sI2320
I6
sI2321
I1
sI2322
I0
sI2323
I1
sI2324
I0
sI2325
I4
sI2326
I0
sI2327
I6
sI2328
I4
sI2329
I4
sI2330
I4
sI2331
I0
sI2332
I6
sI2333
I0
sI2334
I0
sI2335
I0
sI2336
I2
sI2337
I0
sI2338
I1
sI2339
I0
sI2340
I0
sI2341
I1
sI2342
I2
sI2343
I1
sI2344
I0
sI2345
I4
sI2346
I0
sI2347
I1
sI2348
I5
sI2349
I7
sI2350
I0
sI2351
I4
sI2352
I0
sI2353
I0
sI2354
I0
sI2355
I0
sI2356
I0
sI2357
I0
sI2358
I0
sI2359
I0
sI2360
I0
sI2361
I0
sI2362
I6
sI2363
I1
sI2364
I1
sI2365
I0
sI2366
I6
sI2367
I0
sI2368
I1
sI2369
I6
sI2370
I2
sI2371
I7
sI2372
I2
sI2373
I1
sI2374
I0
sI2375
I0
sI2376
I0
sI2377
I0
sI2378
I0
sI2379
I0
sI2380
I2
sI2381
I0
sI2382
I0
sI2383
I0
sI2384
I4
sI2385
I4
sI2386
I0
sI2387
I3
sI2388
I0
sI2389
I0
sI2390
I0
sI2391
I0
sI2392
I3
sI2393
I0
sI2394
I0
sI2395
I3
sI2396
I0
sI2397
I1
sI2398
I0
sI2399
I0
sI2400
I0
sI2401
I0
sI2402
I0
sI2403
I0
sI2404
I0
sI2405
I4
sI2406
I0
sI2407
I0
sI2408
I0
sI2409
I0
sI2410
I4
sI2411
I0
sI2412
I0
sI2413
I0
sI2414
I0
sI2415
I3
sI2416
I4
sI2417
I0
sI2418
I4
sI2419
I4
sI2420
I0
sI2421
I0
sI2422
I0
sI2423
I0
sI2424
I0
sI2425
I0
sI2426
I0
sI2427
I3
sI2428
I4
sI2429
I3
sI2430
I0
sI2431
I4
sI2432
I3
sI2433
I0
sI2434
I5
sI2435
I0
sI2436
I2
sI2437
I6
sI2438
I3
sI2439
I1
sI2440
I0
sI2441
I6
sI2442
I0
sI2443
I3
sI2444
I6
sI2445
I2
sI2446
I3
sI2447
I2
sI2448
I3
sI2449
I1
sI2450
I2
sI2451
I3
sI2452
I7
sI2453
I5
sI2454
I6
sI2455
I2
sI2456
I0
sI2457
I7
sI2458
I2
sI2459
I2
sI2460
I1
sI2461
I0
sI2462
I3
sI2463
I1
sI2464
I2
sI2465
I2
sI2466
I4
sI2467
I4
sI2468
I1
sI2469
I0
sI2470
I2
sI2471
I0
sI2472
I1
sI2473
I0
sI2474
I0
sI2475
I1
sI2476
I1
sI2477
I4
sI2478
I1
sI2479
I0
sI2480
I0
sI2481
I0
sI2482
I0
sI2483
I4
sI2484
I0
sI2485
I0
sI2486
I4
sI2487
I2
sI2488
I3
sI2489
I5
sI2490
I4
sI2491
I2
sI2492
I2
sI2493
I0
sI2494
I0
sI2495
I4
sI2496
I0
sI2497
I0
sI2498
I0
sI2499
I0
sI2500
I0
sI2501
I0
sI2502
I0
sI2503
I0
sI2504
I0
sI2505
I0
sI2506
I0
sI2507
I3
sI2508
I0
sI2509
I6
sI2510
I0
sI2511
I5
sI2512
I0
sI2513
I0
sI2514
I0
sI2515
I1
sI2516
I6
sI2517
I0
sI2518
I3
sI2519
I0
sI2520
I0
sI2521
I2
sI2522
I2
sI2523
I0
sI2524
I0
sI2525
I0
sI2526
I3
sI2527
I0
sI2528
I0
sI2529
I0
sI2530
I0
sI2531
I0
sI2532
I3
sI2533
I0
sI2534
I0
sI2535
I1
sI2536
I0
sI2537
I0
sI2538
I4
sI2539
I4
sI2540
I4
sI2541
I2
sI2542
I4
sI2543
I0
sI2544
I0
sI2545
I0
sI2546
I0
sI2547
I0
sI2548
I0
sI2549
I0
sI2550
I5
sI2551
I0
sI2552
I5
sI2553
I0
sI2554
I0
sI2555
I3
sI2556
I0
sI2557
I0
sI2558
I0
sI2559
I0
sI2560
I2
sI2561
I0
sI2562
I4
sI2563
I0
sI2564
I0
sI2565
I0
sI2566
I0
sI2567
I0
sI2568
I0
sI2569
I0
sI2570
I2
sI2571
I0
sI2572
I0
sI2573
I0
sI2574
I0
sI2575
I3
sI2576
I3
sI2577
I1
sI2578
I0
sI2579
I3
sI2580
I4
sI2581
I2
sI2582
I3
sI2583
I1
sI2584
I0
sI2585
I0
sI2586
I0
sI2587
I1
sI2588
I3
sI2589
I2
sI2590
I1
sI2591
I1
sI2592
I7
sI2593
I2
sI2594
I1
sI2595
I1
sI2596
I0
sI2597
I4
sI2598
I2
sI2599
I0
sI2600
I1
sI2601
I1
sI2602
I2
sI2603
I1
sI2604
I4
sI2605
I3
sI2606
I4
sI2607
I0
sI2608
I2
sI2609
I4
sI2610
I3
sI2611
I0
sI2612
I4
sI2613
I0
sI2614
I4
sI2615
I6
sI2616
I6
sI2617
I4
sI2618
I2
sI2619
I0
sI2620
I0
sI2621
I4
sI2622
I3
sI2623
I0
sI2624
I0
sI2625
I1
sI2626
I0
sI2627
I3
sI2628
I2
sI2629
I2
sI2630
I2
sI2631
I1
sI2632
I2
sI2633
I0
sI2634
I1
sI2635
I1
sI2636
I0
sI2637
I1
sI2638
I0
sI2639
I0
sI2640
I0
sI2641
I2
sI2642
I0
sI2643
I0
sI2644
I2
sI2645
I3
sI2646
I4
sI2647
I4
sI2648
I0
sI2649
I0
sI2650
I4
sI2651
I0
sI2652
I0
sI2653
I2
sI2654
I0
sI2655
I0
sI2656
I0
sI2657
I0
sI2658
I0
sI2659
I0
sI2660
I0
sI2661
I0
sI2662
I1
sI2663
I1
sI2664
I2
sI2665
I6
sI2666
I0
sI2667
I1
sI2668
I3
sI2669
I6
sI2670
I6
sI2671
I0
sI2672
I0
sI2673
I3
sI2674
I0
sI2675
I1
sI2676
I3
sI2677
I1
sI2678
I2
sI2679
I0
sI2680
I3
sI2681
I2
sI2682
I0
sI2683
I0
sI2684
I0
sI2685
I0
sI2686
I0
sI2687
I1
sI2688
I0
sI2689
I1
sI2690
I0
sI2691
I0
sI2692
I0
sI2693
I0
sI2694
I0
sI2695
I0
sI2696
I0
sI2697
I0
sI2698
I0
sI2699
I0
sI2700
I0
sI2701
I0
sI2702
I0
sI2703
I0
sI2704
I0
sI2705
I0
sI2706
I0
sI2707
I4
sI2708
I0
sI2709
I4
sI2710
I1
sI2711
I0
sI2712
I0
sI2713
I0
sI2714
I0
sI2715
I0
sI2716
I3
sI2717
I5
sI2718
I0
sI2719
I0
sI2720
I0
sI2721
I0
sI2722
I0
sI2723
I4
sI2724
I4
sI2725
I0
sI2726
I1
sI2727
I2
sI2728
I1
sI2729
I3
sI2730
I0
sI2731
I6
sI2732
I0
sI2733
I0
sI2734
I0
sI2735
I0
sI2736
I0
sI2737
I0
sI2738
I0
sI2739
I1
sI2740
I4
sI2741
I0
sI2742
I3
sI2743
I0
sI2744
I0
sI2745
I1
sI2746
I0
sI2747
I0
sI2748
I7
sI2749
I3
sI2750
I3
sI2751
I4
sI2752
I0
sI2753
I0
sI2754
I0
sI2755
I0
sI2756
I0
sI2757
I4
sI2758
I1
sI2759
I1
sI2760
I6
sI2761
I3
sI2762
I2
sI2763
I5
sI2764
I1
sI2765
I1
sI2766
I0
sI2767
I3
sI2768
I3
sI2769
I2
sI2770
I6
sI2771
I1
sI2772
I3
sI2773
I2
sI2774
I1
sI2775
I6
sI2776
I1
sI2777
I1
sI2778
I0
sI2779
I7
sI2780
I1
sI2781
I5
sI2782
I3
sI2783
I0
sI2784
I1
sI2785
I1
sI2786
I5
sI2787
I3
sI2788
I0
sI2789
I3
sI2790
I0
sI2791
I4
sI2792
I2
sI2793
I3
sI2794
I1
sI2795
I0
sI2796
I0
sI2797
I0
sI2798
I5
sI2799
I0
sI2800
I1
sI2801
I0
sI2802
I1
sI2803
I0
sI2804
I0
sI2805
I2
sI2806
I0
sI2807
I0
sI2808
I0
sI2809
I2
sI2810
I2
sI2811
I1
sI2812
I1
sI2813
I2
sI2814
I2
sI2815
I1
sI2816
I0
sI2817
I1
sI2818
I0
sI2819
I4
sI2820
I3
sI2821
I1
sI2822
I0
sI2823
I4
sI2824
I3
sI2825
I5
sI2826
I0
sI2827
I0
sI2828
I5
sI2829
I0
sI2830
I0
sI2831
I6
sI2832
I0
sI2833
I0
sI2834
I0
sI2835
I0
sI2836
I1
sI2837
I0
sI2838
I0
sI2839
I1
sI2840
I0
sI2841
I3
sI2842
I6
sI2843
I0
sI2844
I0
sI2845
I7
sI2846
I0
sI2847
I1
sI2848
I1
sI2849
I1
sI2850
I0
sI2851
I3
sI2852
I1
sI2853
I0
sI2854
I2
sI2855
I0
sI2856
I0
sI2857
I0
sI2858
I0
sI2859
I0
sI2860
I3
sI2861
I1
sI2862
I1
sI2863
I0
sI2864
I2
sI2865
I1
sI2866
I2
sI2867
I0
sI2868
I2
sI2869
I0
sI2870
I3
sI2871
I0
sI2872
I1
sI2873
I0
sI2874
I2
sI2875
I0
sI2876
I0
sI2877
I6
sI2878
I1
sI2879
I0
sI2880
I0
sI2881
I0
sI2882
I0
sI2883
I0
sI2884
I0
sI2885
I0
sI2886
I0
sI2887
I4
sI2888
I4
sI2889
I4
sI2890
I0
sI2891
I5
sI2892
I0
sI2893
I0
sI2894
I0
sI2895
I0
sI2896
I5
sI2897
I3
sI2898
I0
sI2899
I0
sI2900
I0
sI2901
I0
sI2902
I3
sI2903
I4
sI2904
I0
sI2905
I0
sI2906
I6
sI2907
I0
sI2908
I3
sI2909
I1
sI2910
I0
sI2911
I6
sI2912
I0
sI2913
I0
sI2914
I1
sI2915
I0
sI2916
I0
sI2917
I0
sI2918
I0
sI2919
I3
sI2920
I3
sI2921
I3
sI2922
I0
sI2923
I4
sI2924
I0
sI2925
I0
sI2926
I5
sI2927
I0
sI2928
I3
sI2929
I0
sI2930
I0
sI2931
I2
sI2932
I0
sI2933
I1
sI2934
I3
sI2935
I3
sI2936
I4
sI2937
I1
sI2938
I3
sI2939
I0
sI2940
I3
sI2941
I4
sI2942
I0
sI2943
I3
sI2944
I3
sI2945
I1
sI2946
I2
sI2947
I0
sI2948
I0
sI2949
I0
sI2950
I0
sI2951
I2
sI2952
I6
sI2953
I2
sI2954
I1
sI2955
I6
sI2956
I3
sI2957
I7
sI2958
I1
sI2959
I0
sI2960
I4
sI2961
I3
sI2962
I2
sI2963
I2
sI2964
I3
sI2965
I0
sI2966
I6
sI2967
I2
sI2968
I3
sI2969
I0
sI2970
I7
sI2971
I6
sI2972
I1
sI2973
I3
sI2974
I2
sI2975
I3
sI2976
I1
sI2977
I1
sI2978
I2
sI2979
I3
sI2980
I1
sI2981
I3
sI2982
I4
sI2983
I4
sI2984
I0
sI2985
I3
sI2986
I0
sI2987
I1
sI2988
I1
sI2989
I1
sI2990
I1
sI2991
I1
sI2992
I0
sI2993
I2
sI2994
I4
sI2995
I2
sI2996
I3
sI2997
I4
sI2998
I1
sI2999
I4
sI3000
I3
sI3001
I2
sI3002
I2
sI3003
I1
sI3004
I2
sI3005
I1
sI3006
I2
sI3007
I3
sI3008
I2
sI3009
I0
sI3010
I1
sI3011
I0
sI3012
I2
sI3013
I4
sI3014
I3
sI3015
I3
sI3016
I2
sI3017
I7
sI3018
I1
sI3019
I4
sI3020
I0
sI3021
I4
sI3022
I2
sI3023
I3
sI3024
I0
sI3025
I4
sI3026
I1
sI3027
I0
sI3028
I0
sI3029
I0
sI3030
I3
sI3031
I1
sI3032
I1
sI3033
I0
sI3034
I0
sI3035
I0
sI3036
I3
sI3037
I0
sI3038
I0
sI3039
I0
sI3040
I0
sI3041
I1
sI3042
I3
sI3043
I1
sI3044
I3
sI3045
I0
sI3046
I2
sI3047
I0
sI3048
I1
sI3049
I0
sI3050
I2
sI3051
I3
sI3052
I0
sI3053
I0
sI3054
I3
sI3055
I2
sI3056
I2
sI3057
I0
sI3058
I0
sI3059
I3
sI3060
I2
sI3061
I1
sI3062
I0
sI3063
I0
sI3064
I2
sI3065
I3
sI3066
I1
sI3067
I3
sI3068
I0
sI3069
I1
sI3070
I0
sI3071
I0
sI3072
I0
sI3073
I1
sI3074
I3
sI3075
I0
sI3076
I1
sI3077
I3
sI3078
I0
sI3079
I0
sI3080
I0
sI3081
I1
sI3082
I4
sI3083
I0
sI3084
I0
sI3085
I0
sI3086
I4
sI3087
I4
sI3088
I5
sI3089
I2
sI3090
I0
sI3091
I0
sI3092
I0
sI3093
I0
sI3094
I0
sI3095
I0
sI3096
I0
sI3097
I5
sI3098
I0
sI3099
I4
sI3100
I2
sI3101
I2
sI3102
I0
sI3103
I4
sI3104
I0
sI3105
I0
sI3106
I0
sI3107
I0
sI3108
I0
sI3109
I4
sI3110
I1
sI3111
I0
sI3112
I0
sI3113
I1
sI3114
I0
sI3115
I1
sI3116
I0
sI3117
I0
sI3118
I0
sI3119
I4
sI3120
I2
sI3121
I0
sI3122
I0
sI3123
I2
sI3124
I1
sI3125
I0
sI3126
I0
sI3127
I4
sI3128
I0
sI3129
I3
sI3130
I1
sI3131
I1
sI3132
I0
sI3133
I0
sI3134
I3
sI3135
I2
sI3136
I0
sI3137
I3
sI3138
I0
sI3139
I6
sI3140
I5
sI3141
I3
sI3142
I0
sI3143
I1
sI3144
I2
sI3145
I1
sI3146
I0
sI3147
I0
sI3148
I3
sI3149
I4
sI3150
I2
sI3151
I2
sI3152
I1
sI3153
I1
sI3154
I2
sI3155
I6
sI3156
I2
sI3157
I0
sI3158
I1
sI3159
I3
sI3160
I3
sI3161
I3
sI3162
I0
sI3163
I7
sI3164
I2
sI3165
I1
sI3166
I6
sI3167
I4
sI3168
I0
sI3169
I3
sI3170
I3
sI3171
I1
sI3172
I4
sI3173
I1
sI3174
I1
sI3175
I4
sI3176
I0
sI3177
I3
sI3178
I1
sI3179
I1
sI3180
I2
sI3181
I1
sI3182
I2
sI3183
I2
sI3184
I0
sI3185
I1
sI3186
I1
sI3187
I7
sI3188
I0
sI3189
I2
sI3190
I3
sI3191
I4
sI3192
I1
sI3193
I1
sI3194
I1
sI3195
I2
sI3196
I3
sI3197
I6
sI3198
I3
sI3199
I0
sI3200
I0
sI3201
I0
sI3202
I1
sI3203
I3
sI3204
I0
sI3205
I2
sI3206
I2
sI3207
I0
sI3208
I2
sI3209
I3
sI3210
I0
sI3211
I1
sI3212
I0
sI3213
I2
sI3214
I1
sI3215
I2
sI3216
I1
sI3217
I0
sI3218
I0
sI3219
I4
sI3220
I0
sI3221
I0
sI3222
I0
sI3223
I1
sI3224
I0
sI3225
I1
sI3226
I4
sI3227
I0
sI3228
I5
sI3229
I4
sI3230
I2
sI3231
I2
sI3232
I1
sI3233
I2
sI3234
I0
sI3235
I0
sI3236
I1
sI3237
I6
sI3238
I2
sI3239
I0
sI3240
I0
sI3241
I0
sI3242
I0
sI3243
I0
sI3244
I1
sI3245
I0
sI3246
I0
sI3247
I0
sI3248
I1
sI3249
I0
sI3250
I1
sI3251
I0
sI3252
I0
sI3253
I0
sI3254
I7
sI3255
I1
sI3256
I0
sI3257
I0
sI3258
I0
sI3259
I0
sI3260
I1
sI3261
I1
sI3262
I1
sI3263
I2
sI3264
I3
sI3265
I2
sI3266
I1
sI3267
I3
sI3268
I2
sI3269
I1
sI3270
I3
sI3271
I0
sI3272
I1
sI3273
I0
sI3274
I2
sI3275
I3
sI3276
I3
sI3277
I1
sI3278
I2
sI3279
I0
sI3280
I0
sI3281
I0
sI3282
I3
sI3283
I0
sI3284
I4
sI3285
I0
sI3286
I4
sI3287
I4
sI3288
I4
sI3289
I1
sI3290
I1
sI3291
I0
sI3292
I0
sI3293
I0
sI3294
I0
sI3295
I0
sI3296
I0
sI3297
I1
sI3298
I2
sI3299
I3
sI3300
I0
sI3301
I1
sI3302
I1
sI3303
I4
sI3304
I0
sI3305
I0
sI3306
I4
sI3307
I4
sI3308
I0
sI3309
I0
sI3310
I4
sI3311
I4
sI3312
I0
sI3313
I3
sI3314
I4
sI3315
I5
sI3316
I0
sI3317
I0
sI3318
I3
sI3319
I0
sI3320
I0
sI3321
I0
sI3322
I0
sI3323
I0
sI3324
I4
sI3325
I0
sI3326
I0
sI3327
I0
sI3328
I4
sI3329
I0
sI3330
I0
sI3331
I3
sI3332
I0
sI3333
I1
sI3334
I0
sI3335
I0
sI3336
I3
sI3337
I4
sI3338
I0
sI3339
I0
sI3340
I1
sI3341
I4
sI3342
I0
sI3343
I0
sI3344
I0
sI3345
I0
sI3346
I4
sI3347
I0
sI3348
I1
sI3349
I0
sI3350
I0
sI3351
I0
sI3352
I0
sI3353
I0
sI3354
I0
sI3355
I0
sI3356
I0
sI3357
I1
sI3358
I0
sI3359
I0
sI3360
I0
sI3361
I0
sI3362
I0
sI3363
I0
sI3364
I2
sI3365
I0
sI3366
I4
sI3367
I0
sI3368
I1
sI3369
I3
sI3370
I4
sI3371
I3
sI3372
I3
sI3373
I0
sI3374
I2
sI3375
I2
sI3376
I0
sI3377
I1
sI3378
I4
sI3379
I0
sI3380
I0
sI3381
I2
sI3382
I2
sI3383
I0
sI3384
I5
sI3385
I0
sI3386
I7
sI3387
I6
sI3388
I0
sI3389
I6
sI3390
I1
sI3391
I4
sI3392
I1
sI3393
I2
sI3394
I1
sI3395
I3
sI3396
I0
sI3397
I1
sI3398
I1
sI3399
I6
sI3400
I2
sI3401
I1
sI3402
I3
sI3403
I2
sI3404
I4
sI3405
I1
sI3406
I0
sI3407
I3
sI3408
I1
sI3409
I3
sI3410
I1
sI3411
I2
sI3412
I6
sI3413
I3
sI3414
I0
sI3415
I0
sI3416
I3
sI3417
I0
sI3418
I0
sI3419
I4
sI3420
I1
sI3421
I2
sI3422
I3
sI3423
I0
sI3424
I7
sI3425
I7
sI3426
I1
sI3427
I2
sI3428
I0
sI3429
I1
sI3430
I0
sI3431
I0
sI3432
I5
sI3433
I2
sI3434
I2
sI3435
I3
sI3436
I2
sI3437
I0
sI3438
I4
sI3439
I3
sI3440
I4
sI3441
I4
sI3442
I7
sI3443
I3
sI3444
I0
sI3445
I2
sI3446
I4
sI3447
I2
sI3448
I1
sI3449
I0
sI3450
I0
sI3451
I6
sI3452
I3
sI3453
I1
sI3454
I2
sI3455
I3
sI3456
I1
sI3457
I4
sI3458
I0
sI3459
I0
sI3460
I0
sI3461
I1
sI3462
I2
sI3463
I7
sI3464
I3
sI3465
I0
sI3466
I0
sI3467
I2
sI3468
I0
sI3469
I3
sI3470
I1
sI3471
I1
sI3472
I5
sI3473
I7
sI3474
I3
sI3475
I3
sI3476
I0
sI3477
I4
sI3478
I1
sI3479
I0
sI3480
I0
sI3481
I0
sI3482
I0
sI3483
I0
sI3484
I0
sI3485
I0
sI3486
I2
sI3487
I6
sI3488
I0
sI3489
I1
sI3490
I0
sI3491
I0
sI3492
I0
sI3493
I1
sI3494
I0
sI3495
I0
sI3496
I1
sI3497
I0
sI3498
I0
sI3499
I0
sI3500
I1
sI3501
I6
sI3502
I6
sI3503
I2
sI3504
I1
sI3505
I2
sI3506
I0
sI3507
I3
sI3508
I0
sI3509
I2
sI3510
I2
sI3511
I1
sI3512
I1
sI3513
I2
sI3514
I2
sI3515
I1
sI3516
I3
sI3517
I0
sI3518
I2
sI3519
I0
sI3520
I3
sI3521
I0
sI3522
I2
sI3523
I1
sI3524
I0
sI3525
I1
sI3526
I0
sI3527
I0
sI3528
I1
sI3529
I0
sI3530
I1
sI3531
I0
sI3532
I2
sI3533
I0
sI3534
I0
sI3535
I0
sI3536
I0
sI3537
I1
sI3538
I2
sI3539
I0
sI3540
I0
sI3541
I4
sI3542
I4
sI3543
I4
sI3544
I0
sI3545
I3
sI3546
I0
sI3547
I4
sI3548
I3
sI3549
I4
sI3550
I4
sI3551
I0
sI3552
I3
sI3553
I0
sI3554
I4
sI3555
I3
sI3556
I2
sI3557
I0
sI3558
I0
sI3559
I0
sI3560
I0
sI3561
I0
sI3562
I0
sI3563
I0
sI3564
I0
sI3565
I0
sI3566
I0
sI3567
I2
sI3568
I2
sI3569
I1
sI3570
I0
sI3571
I0
sI3572
I0
sI3573
I0
sI3574
I4
sI3575
I0
sI3576
I0
sI3577
I0
sI3578
I3
sI3579
I0
sI3580
I0
sI3581
I0
sI3582
I1
sI3583
I0
sI3584
I0
sI3585
I4
sI3586
I0
sI3587
I0
sI3588
I0
sI3589
I4
sI3590
I0
sI3591
I4
sI3592
I4
sI3593
I0
sI3594
I1
sI3595
I6
sI3596
I0
sI3597
I0
sI3598
I2
sI3599
I2
sI3600
I1
sI3601
I0
sI3602
I0
sI3603
I2
sI3604
I0
sI3605
I4
sI3606
I0
sI3607
I0
sI3608
I0
sI3609
I3
sI3610
I0
sI3611
I0
sI3612
I0
sI3613
I0
sI3614
I0
sI3615
I5
sI3616
I4
sI3617
I0
sI3618
I1
sI3619
I3
sI3620
I4
sI3621
I3
sI3622
I7
sI3623
I1
sI3624
I2
sI3625
I4
sI3626
I0
sI3627
I0
sI3628
I5
sI3629
I1
sI3630
I4
sI3631
I1
sI3632
I1
sI3633
I3
sI3634
I0
sI3635
I0
sI3636
I3
sI3637
I2
sI3638
I5
sI3639
I2
sI3640
I2
sI3641
I1
sI3642
I3
sI3643
I0
sI3644
I2
sI3645
I2
sI3646
I6
sI3647
I3
sI3648
I3
sI3649
I8
sI3650
I1
sI3651
I2
sI3652
I1
sI3653
I1
sI3654
I2
sI3655
I1
sI3656
I2
sI3657
I3
sI3658
I3
sI3659
I1
sI3660
I0
sI3661
I1
sI3662
I1
sI3663
I7
sI3664
I0
sI3665
I2
sI3666
I1
sI3667
I3
sI3668
I4
sI3669
I1
sI3670
I1
sI3671
I3
sI3672
I2
sI3673
I5
sI3674
I4
sI3675
I1
sI3676
I1
sI3677
I1
sI3678
I2
sI3679
I6
sI3680
I0
sI3681
I6
sI3682
I4
sI3683
I0
sI3684
I5
sI3685
I3
sI3686
I4
sI3687
I1
sI3688
I1
sI3689
I0
sI3690
I3
sI3691
I0
sI3692
I3
sI3693
I0
sI3694
I3
sI3695
I0
sI3696
I4
sI3697
I0
sI3698
I0
sI3699
I3
sI3700
I0
sI3701
I1
sI3702
I0
sI3703
I0
sI3704
I1
sI3705
I0
sI3706
I3
sI3707
I0
sI3708
I2
sI3709
I0
sI3710
I2
sI3711
I2
sI3712
I1
sI3713
I6
sI3714
I1
sI3715
I2
sI3716
I2
sI3717
I4
sI3718
I4
sI3719
I0
sI3720
I1
sI3721
I1
sI3722
I0
sI3723
I0
sI3724
I4
sI3725
I0
sI3726
I0
sI3727
I3
sI3728
I3
sI3729
I4
sI3730
I0
sI3731
I0
sI3732
I2
sI3733
I1
sI3734
I1
sI3735
I3
sI3736
I4
sI3737
I1
sI3738
I1
sI3739
I3
sI3740
I2
sI3741
I1
sI3742
I0
sI3743
I0
sI3744
I1
sI3745
I0
sI3746
I0
sI3747
I0
sI3748
I0
sI3749
I1
sI3750
I0
sI3751
I0
sI3752
I0
sI3753
I6
sI3754
I0
sI3755
I0
sI3756
I0
sI3757
I0
sI3758
I0
sI3759
I0
sI3760
I0
sI3761
I1
sI3762
I0
sI3763
I0
sI3764
I3
sI3765
I0
sI3766
I3
sI3767
I0
sI3768
I0
sI3769
I0
sI3770
I6
sI3771
I1
sI3772
I2
sI3773
I0
sI3774
I0
sI3775
I7
sI3776
I2
sI3777
I1
sI3778
I3
sI3779
I1
sI3780
I0
sI3781
I1
sI3782
I0
sI3783
I2
sI3784
I1
sI3785
I0
sI3786
I2
sI3787
I2
sI3788
I0
sI3789
I2
sI3790
I2
sI3791
I0
sI3792
I1
sI3793
I0
sI3794
I0
sI3795
I0
sI3796
I2
sI3797
I1
sI3798
I3
sI3799
I0
sI3800
I0
sI3801
I2
sI3802
I1
sI3803
I4
sI3804
I0
sI3805
I3
sI3806
I0
sI3807
I1
sI3808
I6
sI3809
I0
sI3810
I3
sI3811
I2
sI3812
I0
sI3813
I3
sI3814
I0
sI3815
I0
sI3816
I1
sI3817
I0
sI3818
I1
sI3819
I4
sI3820
I2
sI3821
I0
sI3822
I0
sI3823
I0
sI3824
I0
sI3825
I0
sI3826
I0
sI3827
I0
sI3828
I0
sI3829
I0
sI3830
I0
sI3831
I0
sI3832
I0
sI3833
I0
sI3834
I2
sI3835
I4
sI3836
I0
sI3837
I0
sI3838
I4
sI3839
I0
sI3840
I4
sI3841
I0
sI3842
I4
sI3843
I0
sI3844
I0
sI3845
I4
sI3846
I4
sI3847
I3
sI3848
I4
sI3849
I0
sI3850
I4
sI3851
I0
sI3852
I0
sI3853
I1
sI3854
I0
sI3855
I1
sI3856
I0
sI3857
I0
sI3858
I0
sI3859
I0
sI3860
I0
sI3861
I0
sI3862
I0
sI3863
I0
sI3864
I4
sI3865
I0
sI3866
I0
sI3867
I0
sI3868
I0
sI3869
I0
sI3870
I5
sI3871
I5
sI3872
I4
sI3873
I0
sI3874
I0
sI3875
I0
sI3876
I0
sI3877
I2
sI3878
I0
sI3879
I0
sI3880
I2
sI3881
I0
sI3882
I6
sI3883
I4
sI3884
I4
sI3885
I0
sI3886
I0
sI3887
I0
sI3888
I4
sI3889
I4
sI3890
I4
sI3891
I1
sI3892
I4
sI3893
I1
sI3894
I0
sI3895
I4
sI3896
I0
sI3897
I4
sI3898
I4
sI3899
I1
sI3900
I4
sI3901
I4
sI3902
I0
sI3903
I0
sI3904
I0
sI3905
I0
sI3906
I0
sI3907
I0
sI3908
I0
sI3909
I3
sI3910
I2
sI3911
I2
sI3912
I0
sI3913
I0
sI3914
I1
sI3915
I0
sI3916
I0
sI3917
I0
sI3918
I2
sI3919
I0
sI3920
I2
sI3921
I0
sI3922
I0
sI3923
I3
sI3924
I1
sI3925
I2
sI3926
I1
sI3927
I0
sI3928
I0
sI3929
I3
sI3930
I3
sI3931
I4
sI3932
I0
sI3933
I1
sI3934
I1
sI3935
I3
sI3936
I0
sI3937
I2
sI3938
I3
sI3939
I4
sI3940
I0
sI3941
I6
sI3942
I0
sI3943
I3
sI3944
I0
sI3945
I2
sI3946
I2
sI3947
I4
sI3948
I0
sI3949
I0
sI3950
I2
sI3951
I1
sI3952
I1
sI3953
I3
sI3954
I3
sI3955
I2
sI3956
I6
sI3957
I2
sI3958
I6
sI3959
I0
sI3960
I1
sI3961
I5
sI3962
I0
sI3963
I1
sI3964
I2
sI3965
I5
sI3966
I1
sI3967
I1
sI3968
I7
sI3969
I3
sI3970
I0
sI3971
I0
sI3972
I2
sI3973
I3
sI3974
I7
sI3975
I1
sI3976
I3
sI3977
I1
sI3978
I1
sI3979
I0
sI3980
I2
sI3981
I4
sI3982
I4
sI3983
I4
sI3984
I3
sI3985
I2
sI3986
I1
sI3987
I7
sI3988
I4
sI3989
I1
sI3990
I0
sI3991
I3
sI3992
I0
sI3993
I4
sI3994
I6
sI3995
I3
sI3996
I4
sI3997
I4
sI3998
I0
sI3999
I2
sI4000
I1
sI4001
I6
sI4002
I0
sI4003
I4
sI4004
I2
sI4005
I3
sI4006
I3
sI4007
I0
sI4008
I0
sI4009
I2
sI4010
I5
sI4011
I5
sI4012
I2
sI4013
I0
sI4014
I1
sI4015
I0
sI4016
I1
sI4017
I0
sI4018
I4
sI4019
I3
sI4020
I1
sI4021
I2
sI4022
I6
sI4023
I1
sI4024
I2
sI4025
I1
sI4026
I6
sI4027
I3
sI4028
I1
sI4029
I1
sI4030
I2
sI4031
I0
sI4032
I0
sI4033
I4
sI4034
I0
sI4035
I0
sI4036
I4
sI4037
I4
sI4038
I0
sI4039
I4
sI4040
I4
sI4041
I0
sI4042
I0
sI4043
I4
sI4044
I4
sI4045
I0
sI4046
I0
sI4047
I2
sI4048
I5
sI4049
I0
sI4050
I2
sI4051
I0
sI4052
I0
sI4053
I0
sI4054
I1
sI4055
I7
sI4056
I0
sI4057
I1
sI4058
I2
sI4059
I3
sI4060
I1
sI4061
I0
sI4062
I2
sI4063
I3
sI4064
I3
sI4065
I2
sI4066
I1
sI4067
I0
sI4068
I5
sI4069
I0
sI4070
I4
sI4071
I2
sI4072
I4
sI4073
I0
sI4074
I0
sI4075
I0
sI4076
I0
sI4077
I0
sI4078
I0
sI4079
I0
sI4080
I0
sI4081
I0
sI4082
I3
sI4083
I4
sI4084
I0
sI4085
I0
sI4086
I2
sI4087
I4
sI4088
I3
sI4089
I0
sI4090
I6
sI4091
I2
sI4092
I0
sI4093
I3
sI4094
I0
sI4095
I1
sI4096
I0
sI4097
I1
sI4098
I3
sI4099
I0
sI4100
I1
sI4101
I1
sI4102
I0
sI4103
I0
sI4104
I2
sI4105
I0
sI4106
I0
sI4107
I1
sI4108
I0
sI4109
I2
sI4110
I2
sI4111
I3
sI4112
I3
sI4113
I2
sI4114
I2
sI4115
I3
sI4116
I2
sI4117
I2
sI4118
I0
sI4119
I3
sI4120
I0
sI4121
I0
sI4122
I0
sI4123
I0
sI4124
I4
sI4125
I1
sI4126
I2
sI4127
I0
sI4128
I0
sI4129
I2
sI4130
I0
sI4131
I0
sI4132
I0
sI4133
I0
sI4134
I0
sI4135
I0
sI4136
I1
sI4137
I0
sI4138
I1
sI4139
I0
sI4140
I1
sI4141
I0
sI4142
I0
sI4143
I0
sI4144
I0
sI4145
I0
sI4146
I0
sI4147
I0
sI4148
I0
sI4149
I0
sI4150
I0
sI4151
I3
sI4152
I0
sI4153
I0
sI4154
I3
sI4155
I1
sI4156
I2
sI4157
I0
sI4158
I4
sI4159
I4
sI4160
I3
sI4161
I0
sI4162
I4
sI4163
I0
sI4164
I4
sI4165
I0
sI4166
I0
sI4167
I0
sI4168
I4
sI4169
I0
sI4170
I4
sI4171
I0
sI4172
I4
sI4173
I0
sI4174
I0
sI4175
I3
sI4176
I0
sI4177
I0
sI4178
I0
sI4179
I0
sI4180
I4
sI4181
I4
sI4182
I0
sI4183
I0
sI4184
I0
sI4185
I0
sI4186
I3
sI4187
I0
sI4188
I5
sI4189
I5
sI4190
I5
sI4191
I0
sI4192
I0
sI4193
I0
sI4194
I3
sI4195
I3
sI4196
I3
sI4197
I3
sI4198
I3
sI4199
I0
sI4200
I3
sI4201
I0
sI4202
I0
sI4203
I0
sI4204
I0
sI4205
I3
sI4206
I4
sI4207
I4
sI4208
I4
sI4209
I1
sI4210
I0
sI4211
I4
sI4212
I0
sI4213
I0
sI4214
I0
sI4215
I1
sI4216
I2
sI4217
I3
sI4218
I0
sI4219
I6
sI4220
I0
sI4221
I6
sI4222
I6
sI4223
I0
sI4224
I5
sI4225
I0
sI4226
I0
sI4227
I3
sI4228
I4
sI4229
I0
sI4230
I3
sI4231
I1
sI4232
I0
sI4233
I0
sI4234
I0
sI4235
I2
sI4236
I0
sI4237
I0
sI4238
I3
sI4239
I1
sI4240
I0
sI4241
I0
sI4242
I1
sI4243
I1
sI4244
I0
sI4245
I4
sI4246
I1
sI4247
I0
sI4248
I3
sI4249
I0
sI4250
I0
sI4251
I0
sI4252
I0
sI4253
I1
sI4254
I3
sI4255
I2
sI4256
I0
sI4257
I0
sI4258
I1
sI4259
I3
sI4260
I6
sI4261
I3
sI4262
I0
sI4263
I0
sI4264
I3
sI4265
I3
sI4266
I0
sI4267
I2
sI4268
I0
sI4269
I0
sI4270
I3
sI4271
I1
sI4272
I4
sI4273
I3
sI4274
I3
sI4275
I3
sI4276
I3
sI4277
I3
sI4278
I3
sI4279
I0
sI4280
I0
sI4281
I3
sI4282
I0
sI4283
I0
sI4284
I0
sI4285
I2
sI4286
I2
sI4287
I4
sI4288
I0
sI4289
I0
sI4290
I0
sI4291
I2
sI4292
I2
sI4293
I0
sI4294
I1
sI4295
I2
sI4296
I1
sI4297
I0
sI4298
I0
sI4299
I3
sI4300
I1
sI4301
I2
sI4302
I2
sI4303
I1
sI4304
I5
sI4305
I3
sI4306
I1
sI4307
I0
sI4308
I4
sI4309
I4
sI4310
I1
sI4311
I3
sI4312
I1
sI4313
I1
sI4314
I2
sI4315
I1
sI4316
I0
sI4317
I3
sI4318
I3
sI4319
I1
sI4320
I1
sI4321
I6
sI4322
I1
sI4323
I3
sI4324
I2
sI4325
I1
sI4326
I4
sI4327
I4
sI4328
I1
sI4329
I0
sI4330
I2
sI4331
I2
sI4332
I0
sI4333
I1
sI4334
I5
sI4335
I1
sI4336
I1
sI4337
I3
sI4338
I0
sI4339
I1
sI4340
I1
sI4341
I0
sI4342
I2
sI4343
I4
sI4344
I2
sI4345
I4
sI4346
I3
sI4347
I3
sI4348
I0
sI4349
I1
sI4350
I2
sI4351
I0
sI4352
I2
sI4353
I2
sI4354
I1
sI4355
I2
sI4356
I2
sI4357
I7
sI4358
I3
sI4359
I4
sI4360
I0
sI4361
I3
sI4362
I4
sI4363
I1
sI4364
I1
sI4365
I3
sI4366
I0
sI4367
I0
sI4368
I5
sI4369
I2
sI4370
I3
sI4371
I0
sI4372
I2
sI4373
I1
sI4374
I1
sI4375
I1
sI4376
I1
sI4377
I0
sI4378
I0
sI4379
I4
sI4380
I0
sI4381
I0
sI4382
I0
sI4383
I3
sI4384
I0
sI4385
I0
sI4386
I1
sI4387
I0
sI4388
I0
sI4389
I0
sI4390
I0
sI4391
I0
sI4392
I4
sI4393
I0
sI4394
I4
sI4395
I0
sI4396
I0
sI4397
I4
sI4398
I0
sI4399
I3
sI4400
I1
sI4401
I0
sI4402
I4
sI4403
I1
sI4404
I3
sI4405
I3
sI4406
I3
sI4407
I4
sI4408
I4
sI4409
I3
sI4410
I0
sI4411
I4
sI4412
I0
sI4413
I4
sI4414
I0
sI4415
I3
sI4416
I0
sI4417
I0
sI4418
I0
sI4419
I0
sI4420
I4
sI4421
I1
sI4422
I0
sI4423
I4
sI4424
I0
sI4425
I2
sI4426
I0
sI4427
I0
sI4428
I0
sI4429
I0
sI4430
I0
sI4431
I3
sI4432
I0
sI4433
I0
sI4434
I0
sI4435
I0
sI4436
I0
sI4437
I1
sI4438
I1
sI4439
I0
sI4440
I1
sI4441
I1
sI4442
I0
sI4443
I0
sI4444
I0
sI4445
I0
sI4446
I0
sI4447
I0
sI4448
I0
sI4449
I0
sI4450
I0
sI4451
I0
sI4452
I1
sI4453
I0
sI4454
I3
sI4455
I0
sI4456
I2
sI4457
I0
sI4458
I0
sI4459
I0
sI4460
I1
sI4461
I2
sI4462
I0
sI4463
I2
sI4464
I0
sI4465
I0
sI4466
I0
sI4467
I0
sI4468
I0
sI4469
I1
sI4470
I7
sI4471
I1
sI4472
I2
sI4473
I1
sI4474
I3
sI4475
I1
sI4476
I2
sI4477
I1
sI4478
I2
sI4479
I1
sI4480
I0
sI4481
I6
sI4482
I0
sI4483
I0
sI4484
I3
sI4485
I2
sI4486
I2
sI4487
I3
sI4488
I6
sI4489
I0
sI4490
I0
sI4491
I2
sI4492
I0
sI4493
I1
sI4494
I0
sI4495
I3
sI4496
I1
sI4497
I3
sI4498
I4
sI4499
I3
sI4500
I0
sI4501
I0
sI4502
I0
sI4503
I1
sI4504
I3
sI4505
I2
sI4506
I3
sI4507
I2
sI4508
I0
sI4509
I3
sI4510
I0
sI4511
I0
sI4512
I0
sI4513
I3
sI4514
I0
sI4515
I1
sI4516
I1
sI4517
I0
sI4518
I0
sI4519
I0
sI4520
I0
sI4521
I0
sI4522
I0
sI4523
I0
sI4524
I0
sI4525
I3
sI4526
I4
sI4527
I1
sI4528
I1
sI4529
I4
sI4530
I0
sI4531
I1
sI4532
I1
sI4533
I4
sI4534
I0
sI4535
I0
sI4536
I2
sI4537
I2
sI4538
I0
sI4539
I0
sI4540
I2
sI4541
I0
sI4542
I0
sI4543
I0
sI4544
I0
sI4545
I0
sI4546
I1
sI4547
I0
sI4548
I4
sI4549
I0
sI4550
I0
sI4551
I4
sI4552
I2
sI4553
I4
sI4554
I5
sI4555
I0
sI4556
I2
sI4557
I0
sI4558
I4
sI4559
I0
sI4560
I0
sI4561
I0
sI4562
I0
sI4563
I0
sI4564
I4
sI4565
I0
sI4566
I0
sI4567
I4
sI4568
I0
sI4569
I3
sI4570
I4
sI4571
I4
sI4572
I0
sI4573
I0
sI4574
I4
sI4575
I0
sI4576
I0
sI4577
I0
sI4578
I0
sI4579
I0
sI4580
I0
sI4581
I0
sI4582
I0
sI4583
I0
sI4584
I0
sI4585
I3
sI4586
I3
sI4587
I0
sI4588
I0
sI4589
I0
sI4590
I0
sI4591
I0
sI4592
I0
sI4593
I3
sI4594
I0
sI4595
I3
sI4596
I3
sI4597
I0
sI4598
I4
sI4599
I0
sI4600
I0
sI4601
I4
sI4602
I0
sI4603
I0
sI4604
I1
sI4605
I0
sI4606
I2
sI4607
I0
sI4608
I2
sI4609
I3
sI4610
I0
sI4611
I0
sI4612
I2
sI4613
I4
sI4614
I0
sI4615
I1
sI4616
I3
sI4617
I2
sI4618
I0
sI4619
I0
sI4620
I0
sI4621
I3
sI4622
I0
sI4623
I3
sI4624
I0
sI4625
I0
sI4626
I0
sI4627
I0
sI4628
I0
sI4629
I0
sI4630
I3
sI4631
I0
sI4632
I1
sI4633
I0
sI4634
I1
sI4635
I0
sI4636
I0
sI4637
I2
sI4638
I0
sI4639
I0
sI4640
I0
sI4641
I0
sI4642
I3
sI4643
I4
sI4644
I3
sI4645
I0
sI4646
I2
sI4647
I2
sI4648
I4
sI4649
I0
sI4650
I3
sI4651
I0
sI4652
I0
sI4653
I1
sI4654
I1
sI4655
I2
sI4656
I0
sI4657
I4
sI4658
I0
sI4659
I0
sI4660
I3
sI4661
I3
sI4662
I2
sI4663
I5
sI4664
I2
sI4665
I3
sI4666
I1
sI4667
I0
sI4668
I0
sI4669
I0
sI4670
I0
sI4671
I0
sI4672
I2
sI4673
I3
sI4674
I0
sI4675
I3
sI4676
I0
sI4677
I5
sI4678
I3
sI4679
I1
sI4680
I2
sI4681
I1
sI4682
I0
sI4683
I0
sI4684
I0
sI4685
I2
sI4686
I1
sI4687
I1
sI4688
I6
sI4689
I1
sI4690
I1
sI4691
I1
sI4692
I0
sI4693
I1
sI4694
I1
sI4695
I1
sI4696
I2
sI4697
I2
sI4698
I2
sI4699
I1
sI4700
I6
sI4701
I6
sI4702
I6
sI4703
I0
sI4704
I2
sI4705
I2
sI4706
I7
sI4707
I7
sI4708
I4
sI4709
I1
sI4710
I1
sI4711
I2
sI4712
I0
sI4713
I1
sI4714
I1
sI4715
I2
sI4716
I4
sI4717
I0
sI4718
I2
sI4719
I3
sI4720
I0
sI4721
I1
sI4722
I7
sI4723
I1
sI4724
I0
sI4725
I1
sI4726
I2
sI4727
I4
sI4728
I7
sI4729
I2
sI4730
I2
sI4731
I4
sI4732
I2
sI4733
I0
sI4734
I3
sI4735
I1
sI4736
I0
sI4737
I0
sI4738
I0
sI4739
I3
sI4740
I4
sI4741
I2
sI4742
I1
sI4743
I1
sI4744
I2
sI4745
I3
sI4746
I1
sI4747
I0
sI4748
I1
sI4749
I0
sI4750
I0
sI4751
I1
sI4752
I1
sI4753
I3
sI4754
I0
sI4755
I0
sI4756
I0
sI4757
I2
sI4758
I4
sI4759
I6
sI4760
I0
sI4761
I2
sI4762
I1
sI4763
I0
sI4764
I4
sI4765
I0
sI4766
I0
sI4767
I3
sI4768
I7
sI4769
I0
sI4770
I0
sI4771
I0
sI4772
I2
sI4773
I2
sI4774
I3
sI4775
I0
sI4776
I1
sI4777
I0
sI4778
I1
sI4779
I2
sI4780
I0
sI4781
I0
sI4782
I1
sI4783
I1
sI4784
I1
sI4785
I0
sI4786
I0
sI4787
I1
sI4788
I5
sI4789
I1
sI4790
I1
sI4791
I4
sI4792
I3
sI4793
I0
sI4794
I0
sI4795
I0
sI4796
I0
sI4797
I0
sI4798
I2
sI4799
I2
sI4800
I0
sI4801
I1
sI4802
I2
sI4803
I3
sI4804
I3
sI4805
I3
sI4806
I0
sI4807
I1
sI4808
I4
sI4809
I2
sI4810
I0
sI4811
I1
sI4812
I0
sI4813
I4
sI4814
I4
sI4815
I1
sI4816
I0
sI4817
I0
sI4818
I4
sI4819
I2
sI4820
I4
sI4821
I5
sI4822
I0
sI4823
I3
sI4824
I0
sI4825
I2
sI4826
I0
sI4827
I4
sI4828
I6
sI4829
I3
sI4830
I3
sI4831
I1
sI4832
I0
sI4833
I0
sI4834
I0
sI4835
I0
sI4836
I0
sI4837
I4
sI4838
I0
sI4839
I0
sI4840
I0
sI4841
I1
sI4842
I0
sI4843
I0
sI4844
I2
sI4845
I0
sI4846
I0
sI4847
I0
sI4848
I1
sI4849
I3
sI4850
I0
sI4851
I0
sI4852
I1
sI4853
I0
sI4854
I0
sI4855
I3
sI4856
I3
sI4857
I0
sI4858
I1
sI4859
I0
sI4860
I1
sI4861
I4
sI4862
I5
sI4863
I0
sI4864
I0
sI4865
I0
sI4866
I0
sI4867
I1
sI4868
I0
sI4869
I0
sI4870
I0
sI4871
I0
sI4872
I0
sI4873
I0
sI4874
I1
sI4875
I2
sI4876
I1
sI4877
I6
sI4878
I1
sI4879
I0
sI4880
I1
sI4881
I1
sI4882
I1
sI4883
I3
sI4884
I1
sI4885
I1
sI4886
I1
sI4887
I1
sI4888
I0
sI4889
I0
sI4890
I1
sI4891
I0
sI4892
I1
sI4893
I2
sI4894
I1
sI4895
I0
sI4896
I0
sI4897
I6
sI4898
I2
sI4899
I0
sI4900
I1
sI4901
I1
sI4902
I1
sI4903
I0
sI4904
I1
sI4905
I0
sI4906
I6
sI4907
I2
sI4908
I0
sI4909
I6
sI4910
I0
sI4911
I2
sI4912
I2
sI4913
I0
sI4914
I1
sI4915
I0
sI4916
I0
sI4917
I0
sI4918
I0
sI4919
I1
sI4920
I0
sI4921
I0
sI4922
I1
sI4923
I3
sI4924
I3
sI4925
I1
sI4926
I0
sI4927
I6
sI4928
I2
sI4929
I0
sI4930
I2
sI4931
I0
sI4932
I0
sI4933
I1
sI4934
I0
sI4935
I0
sI4936
I0
sI4937
I0
sI4938
I0
sI4939
I4
sI4940
I1
sI4941
I2
sI4942
I2
sI4943
I4
sI4944
I4
sI4945
I0
sI4946
I0
sI4947
I1
sI4948
I0
sI4949
I0
sI4950
I0
sI4951
I0
sI4952
I0
sI4953
I0
sI4954
I0
sI4955
I0
sI4956
I4
sI4957
I4
sI4958
I4
sI4959
I4
sI4960
I5
sI4961
I0
sI4962
I4
sI4963
I5
sI4964
I0
sI4965
I3
sI4966
I4
sI4967
I4
sI4968
I4
sI4969
I0
sI4970
I0
sI4971
I0
sI4972
I0
sI4973
I4
sI4974
I4
sI4975
I0
sI4976
I4
sI4977
I5
sI4978
I0
sI4979
I0
sI4980
I0
sI4981
I2
sI4982
I0
sI4983
I0
sI4984
I0
sI4985
I0
sI4986
I0
sI4987
I0
sI4988
I4
sI4989
I0
sI4990
I0
sI4991
I0
sI4992
I0
sI4993
I0
sI4994
I0
sI4995
I0
sI4996
I5
sI4997
I5
sI4998
I0
sI4999
I0
sI5000
I0
sI5001
I0
sI5002
I0
sI5003
I5
sI5004
I2
sI5005
I0
sI5006
I0
sI5007
I4
sI5008
I0
sI5009
I0
sI5010
I0
sI5011
I0
sI5012
I3
sI5013
I0
sI5014
I4
sI5015
I4
sI5016
I3
sI5017
I4
sI5018
I1
sI5019
I0
sI5020
I0
sI5021
I0
sI5022
I1
sI5023
I4
sI5024
I0
sI5025
I1
sI5026
I1
sI5027
I4
sI5028
I4
sI5029
I4
sI5030
I3
sI5031
I0
sI5032
I0
sI5033
I4
sI5034
I4
sI5035
I0
sI5036
I0
sI5037
I4
sI5038
I0
sI5039
I1
sI5040
I0
sI5041
I0
sI5042
I1
sI5043
I0
sI5044
I0
sI5045
I0
sI5046
I0
sI5047
I0
sI5048
I0
sI5049
I0
sI5050
I3
sI5051
I0
sI5052
I1
sI5053
I0
sI5054
I0
sI5055
I4
sI5056
I0
sI5057
I0
sI5058
I3
sI5059
I2
sI5060
I0
sI5061
I0
sI5062
I3
sI5063
I0
sI5064
I0
sI5065
I0
sI5066
I2
sI5067
I1
sI5068
I0
sI5069
I2
sI5070
I0
sI5071
I0
sI5072
I2
sI5073
I2
sI5074
I3
sI5075
I1
sI5076
I2
sI5077
I3
sI5078
I2
sI5079
I1
sI5080
I2
sI5081
I2
sI5082
I0
sI5083
I0
sI5084
I0
sI5085
I3
sI5086
I2
sI5087
I4
sI5088
I0
sI5089
I4
sI5090
I3
sI5091
I0
sI5092
I4
sI5093
I4
sI5094
I0
sI5095
I0
sI5096
I0
sI5097
I0
sI5098
I5
sI5099
I0
sI5100
I1
sI5101
I0
sI5102
I0
sI5103
I4
sI5104
I2
sI5105
I0
sI5106
I3
sI5107
I0
sI5108
I2
sI5109
I0
sI5110
I0
sI5111
I0
sI5112
I0
sI5113
I3
sI5114
I3
sI5115
I2
sI5116
I6
sI5117
I2
sI5118
I3
sI5119
I1
sI5120
I4
sI5121
I2
sI5122
I0
sI5123
I2
sI5124
I1
sI5125
I5
sI5126
I6
sI5127
I3
sI5128
I1
sI5129
I3
sI5130
I1
sI5131
I1
sI5132
I1
sI5133
I2
sI5134
I1
sI5135
I2
sI5136
I2
sI5137
I2
sI5138
I1
sI5139
I2
sI5140
I7
sI5141
I2
sI5142
I1
sI5143
I6
sI5144
I3
sI5145
I1
sI5146
I3
sI5147
I4
sI5148
I2
sI5149
I1
sI5150
I1
sI5151
I1
sI5152
I1
sI5153
I0
sI5154
I4
sI5155
I1
sI5156
I1
sI5157
I1
sI5158
I0
sI5159
I3
sI5160
I2
sI5161
I2
sI5162
I0
sI5163
I4
sI5164
I0
sI5165
I2
sI5166
I1
sI5167
I0
sI5168
I3
sI5169
I3
sI5170
I1
sI5171
I4
sI5172
I1
sI5173
I1
sI5174
I0
sI5175
I2
sI5176
I0
sI5177
I2
sI5178
I0
sI5179
I6
sI5180
I1
sI5181
I1
sI5182
I0
sI5183
I1
sI5184
I3
sI5185
I0
sI5186
I0
sI5187
I4
sI5188
I4
sI5189
I1
sI5190
I0
sI5191
I0
sI5192
I1
sI5193
I1
sI5194
I3
sI5195
I4
sI5196
I2
sI5197
I5
sI5198
I1
sI5199
I3
sI5200
I4
sI5201
I2
sI5202
I0
sI5203
I2
sI5204
I0
sI5205
I6
sI5206
I1
sI5207
I1
sI5208
I1
sI5209
I0
sI5210
I1
sI5211
I0
sI5212
I1
sI5213
I0
sI5214
I4
sI5215
I1
sI5216
I0
sI5217
I4
sI5218
I4
sI5219
I4
sI5220
I3
sI5221
I0
sI5222
I0
sI5223
I4
sI5224
I0
sI5225
I1
sI5226
I0
sI5227
I0
sI5228
I0
sI5229
I4
sI5230
I1
sI5231
I0
sI5232
I0
sI5233
I0
sI5234
I0
sI5235
I4
sI5236
I0
sI5237
I4
sI5238
I4
sI5239
I3
sI5240
I4
sI5241
I5
sI5242
I5
sI5243
I1
sI5244
I4
sI5245
I3
sI5246
I3
sI5247
I3
sI5248
I3
sI5249
I2
sI5250
I2
sI5251
I5
sI5252
I4
sI5253
I4
sI5254
I0
sI5255
I4
sI5256
I2
sI5257
I2
sI5258
I4
sI5259
I0
sI5260
I1
sI5261
I0
sI5262
I0
sI5263
I0
sI5264
I5
sI5265
I0
sI5266
I2
sI5267
I4
sI5268
I3
sI5269
I0
sI5270
I0
sI5271
I0
sI5272
I0
sI5273
I1
sI5274
I0
sI5275
I0
sI5276
I0
sI5277
I0
sI5278
I0
sI5279
I1
sI5280
I1
sI5281
I1
sI5282
I0
sI5283
I1
sI5284
I1
sI5285
I0
sI5286
I0
sI5287
I0
sI5288
I0
sI5289
I0
sI5290
I0
sI5291
I5
sI5292
I0
sI5293
I0
sI5294
I0
sI5295
I0
sI5296
I2
sI5297
I0
sI5298
I1
sI5299
I1
sI5300
I0
sI5301
I0
sI5302
I0
sI5303
I2
sI5304
I1
sI5305
I0
sI5306
I1
sI5307
I2
sI5308
I1
sI5309
I6
sI5310
I0
sI5311
I0
sI5312
I0
sI5313
I6
sI5314
I2
sI5315
I2
sI5316
I0
sI5317
I0
sI5318
I0
sI5319
I2
sI5320
I2
sI5321
I0
sI5322
I3
sI5323
I0
sI5324
I3
sI5325
I0
sI5326
I3
sI5327
I0
sI5328
I1
sI5329
I1
sI5330
I2
sI5331
I1
sI5332
I6
sI5333
I1
sI5334
I1
sI5335
I1
sI5336
I0
sI5337
I1
sI5338
I1
sI5339
I2
sI5340
I0
sI5341
I2
sI5342
I2
sI5343
I2
sI5344
I3
sI5345
I2
sI5346
I0
sI5347
I4
sI5348
I0
sI5349
I1
sI5350
I3
sI5351
I0
sI5352
I0
sI5353
I2
sI5354
I3
sI5355
I6
sI5356
I1
sI5357
I3
sI5358
I0
sI5359
I0
sI5360
I2
sI5361
I4
sI5362
I3
sI5363
I0
sI5364
I3
sI5365
I6
sI5366
I1
sI5367
I3
sI5368
I0
sI5369
I6
sI5370
I2
sI5371
I0
sI5372
I3
sI5373
I2
sI5374
I0
sI5375
I2
sI5376
I3
sI5377
I0
sI5378
I6
sI5379
I1
sI5380
I1
sI5381
I0
sI5382
I0
sI5383
I3
sI5384
I0
sI5385
I1
sI5386
I0
sI5387
I1
sI5388
I0
sI5389
I2
sI5390
I5
sI5391
I1
sI5392
I0
sI5393
I4
sI5394
I0
sI5395
I3
sI5396
I0
sI5397
I0
sI5398
I0
sI5399
I2
sI5400
I0
sI5401
I0
sI5402
I0
sI5403
I3
sI5404
I0
sI5405
I0
sI5406
I0
sI5407
I0
sI5408
I0
sI5409
I0
sI5410
I0
sI5411
I0
sI5412
I0
sI5413
I0
sI5414
I4
sI5415
I4
sI5416
I0
sI5417
I0
sI5418
I4
sI5419
I4
sI5420
I5
sI5421
I4
sI5422
I0
sI5423
I3
sI5424
I4
sI5425
I3
sI5426
I0
sI5427
I3
sI5428
I1
sI5429
I0
sI5430
I0
sI5431
I4
sI5432
I3
sI5433
I4
sI5434
I1
sI5435
I4
sI5436
I0
sI5437
I0
sI5438
I0
sI5439
I1
sI5440
I0
sI5441
I0
sI5442
I0
sI5443
I0
sI5444
I0
sI5445
I0
sI5446
I0
sI5447
I0
sI5448
I0
sI5449
I0
sI5450
I0
sI5451
I0
sI5452
I3
sI5453
I2
sI5454
I0
sI5455
I0
sI5456
I2
sI5457
I0
sI5458
I0
sI5459
I0
sI5460
I0
sI5461
I0
sI5462
I0
sI5463
I0
sI5464
I0
sI5465
I4
sI5466
I4
sI5467
I4
sI5468
I0
sI5469
I0
sI5470
I0
sI5471
I0
sI5472
I0
sI5473
I3
sI5474
I0
sI5475
I3
sI5476
I0
sI5477
I1
sI5478
I0
sI5479
I0
sI5480
I0
sI5481
I0
sI5482
I4
sI5483
I0
sI5484
I1
sI5485
I1
sI5486
I0
sI5487
I4
sI5488
I2
sI5489
I0
sI5490
I0
sI5491
I4
sI5492
I4
sI5493
I4
sI5494
I4
sI5495
I4
sI5496
I0
sI5497
I0
sI5498
I4
sI5499
I4
sI5500
I0
sI5501
I0
sI5502
I0
sI5503
I0
sI5504
I0
sI5505
I0
sI5506
I0
sI5507
I0
sI5508
I3
sI5509
I1
sI5510
I0
sI5511
I0
sI5512
I2
sI5513
I0
sI5514
I0
sI5515
I0
sI5516
I2
sI5517
I0
sI5518
I0
sI5519
I0
sI5520
I0
sI5521
I0
sI5522
I0
sI5523
I4
sI5524
I2
sI5525
I3
sI5526
I2
sI5527
I0
sI5528
I0
sI5529
I4
sI5530
I4
sI5531
I0
sI5532
I1
sI5533
I0
sI5534
I2
sI5535
I2
sI5536
I4
sI5537
I0
sI5538
I2
sI5539
I0
sI5540
I6
sI5541
I2
sI5542
I3
sI5543
I1
sI5544
I0
sI5545
I2
sI5546
I4
sI5547
I1
sI5548
I0
sI5549
I2
sI5550
I4
sI5551
I4
sI5552
I4
sI5553
I4
sI5554
I3
sI5555
I0
sI5556
I0
sI5557
I0
sI5558
I4
sI5559
I0
sI5560
I0
sI5561
I2
sI5562
I2
sI5563
I2
sI5564
I2
sI5565
I0
sI5566
I0
sI5567
I0
sI5568
I1
sI5569
I0
sI5570
I2
sI5571
I0
sI5572
I2
sI5573
I0
sI5574
I1
sI5575
I3
sI5576
I3
sI5577
I1
sI5578
I5
sI5579
I3
sI5580
I0
sI5581
I3
sI5582
I1
sI5583
I1
sI5584
I3
sI5585
I5
sI5586
I3
sI5587
I3
sI5588
I6
sI5589
I2
sI5590
I2
sI5591
I2
sI5592
I2
sI5593
I2
sI5594
I1
sI5595
I2
sI5596
I1
sI5597
I1
sI5598
I6
sI5599
I2
sI5600
I1
sI5601
I2
sI5602
I4
sI5603
I2
sI5604
I3
sI5605
I7
sI5606
I7
sI5607
I2
sI5608
I4
sI5609
I4
sI5610
I6
sI5611
I4
sI5612
I3
sI5613
I3
sI5614
I0
sI5615
I0
sI5616
I1
sI5617
I0
sI5618
I4
sI5619
I1
sI5620
I1
sI5621
I3
sI5622
I4
sI5623
I1
sI5624
I2
sI5625
I1
sI5626
I3
sI5627
I0
sI5628
I2
sI5629
I1
sI5630
I2
sI5631
I4
sI5632
I2
sI5633
I4
sI5634
I4
sI5635
I2
sI5636
I3
sI5637
I3
sI5638
I2
sI5639
I2
sI5640
I2
sI5641
I0
sI5642
I0
sI5643
I5
sI5644
I1
sI5645
I1
sI5646
I1
sI5647
I6
sI5648
I0
sI5649
I0
sI5650
I5
sI5651
I5
sI5652
I2
sI5653
I1
sI5654
I0
sI5655
I0
sI5656
I0
sI5657
I0
sI5658
I1
sI5659
I1
sI5660
I0
sI5661
I0
sI5662
I1
sI5663
I0
sI5664
I4
sI5665
I0
sI5666
I1
sI5667
I1
sI5668
I2
sI5669
I3
sI5670
I1
sI5671
I1
sI5672
I0
sI5673
I0
sI5674
I0
sI5675
I6
sI5676
I1
sI5677
I1
sI5678
I3
sI5679
I0
sI5680
I1
sI5681
I4
sI5682
I0
sI5683
I4
sI5684
I0
sI5685
I0
sI5686
I1
sI5687
I7
sI5688
I1
sI5689
I0
sI5690
I0
sI5691
I1
sI5692
I0
sI5693
I1
sI5694
I1
sI5695
I1
sI5696
I1
sI5697
I0
sI5698
I4
sI5699
I3
sI5700
I2
sI5701
I0
sI5702
I0
sI5703
I4
sI5704
I0
sI5705
I0
sI5706
I0
sI5707
I1
sI5708
I0
sI5709
I2
sI5710
I4
sI5711
I4
sI5712
I4
sI5713
I4
sI5714
I3
sI5715
I2
sI5716
I4
sI5717
I4
sI5718
I3
sI5719
I2
sI5720
I2
sI5721
I0
sI5722
I3
sI5723
I1
sI5724
I0
sI5725
I3
sI5726
I0
sI5727
I2
sI5728
I0
sI5729
I0
sI5730
I0
sI5731
I0
sI5732
I4
sI5733
I0
sI5734
I1
sI5735
I4
sI5736
I0
sI5737
I3
sI5738
I0
sI5739
I0
sI5740
I0
sI5741
I3
sI5742
I0
sI5743
I0
sI5744
I0
sI5745
I3
sI5746
I0
sI5747
I0
sI5748
I0
sI5749
I6
sI5750
I0
sI5751
I0
sI5752
I0
sI5753
I3
sI5754
I1
sI5755
I1
sI5756
I0
sI5757
I0
sI5758
I0
sI5759
I0
sI5760
I0
sI5761
I3
sI5762
I0
sI5763
I0
sI5764
I6
sI5765
I0
sI5766
I6
sI5767
I0
sI5768
I5
sI5769
I0
sI5770
I0
sI5771
I0
sI5772
I0
sI5773
I1
sI5774
I6
sI5775
I0
sI5776
I0
sI5777
I0
sI5778
I0
sI5779
I7
sI5780
I1
sI5781
I7
sI5782
I0
sI5783
I0
sI5784
I0
sI5785
I0
sI5786
I7
sI5787
I1
sI5788
I1
sI5789
I3
sI5790
I1
sI5791
I0
sI5792
I1
sI5793
I1
sI5794
I3
sI5795
I2
sI5796
I0
sI5797
I3
sI5798
I1
sI5799
I2
sI5800
I5
sI5801
I1
sI5802
I2
sI5803
I2
sI5804
I0
sI5805
I3
sI5806
I2
sI5807
I0
sI5808
I1
sI5809
I6
sI5810
I2
sI5811
I1
sI5812
I1
sI5813
I1
sI5814
I1
sI5815
I0
sI5816
I0
sI5817
I0
sI5818
I1
sI5819
I1
sI5820
I6
sI5821
I5
sI5822
I0
sI5823
I0
sI5824
I1
sI5825
I0
sI5826
I1
sI5827
I0
sI5828
I1
sI5829
I0
sI5830
I1
sI5831
I1
sI5832
I3
sI5833
I2
sI5834
I0
sI5835
I3
sI5836
I0
sI5837
I2
sI5838
I2
sI5839
I3
sI5840
I3
sI5841
I1
sI5842
I1
sI5843
I6
sI5844
I3
sI5845
I6
sI5846
I0
sI5847
I2
sI5848
I0
sI5849
I5
sI5850
I0
sI5851
I2
sI5852
I0
sI5853
I6
sI5854
I6
sI5855
I0
sI5856
I0
sI5857
I0
sI5858
I0
sI5859
I0
sI5860
I1
sI5861
I0
sI5862
I1
sI5863
I1
sI5864
I1
sI5865
I1
sI5866
I1
sI5867
I0
sI5868
I3
sI5869
I4
sI5870
I2
sI5871
I4
sI5872
I1
sI5873
I3
sI5874
I0
sI5875
I0
sI5876
I0
sI5877
I1
sI5878
I3
sI5879
I3
sI5880
I0
sI5881
I1
sI5882
I0
sI5883
I0
sI5884
I0
sI5885
I3
sI5886
I2
sI5887
I3
sI5888
I1
sI5889
I0
sI5890
I0
sI5891
I0
sI5892
I1
sI5893
I4
sI5894
I4
sI5895
I0
sI5896
I0
sI5897
I0
sI5898
I4
sI5899
I4
sI5900
I4
sI5901
I4
sI5902
I4
sI5903
I3
sI5904
I2
sI5905
I0
sI5906
I0
sI5907
I1
sI5908
I0
sI5909
I0
sI5910
I0
sI5911
I0
sI5912
I0
sI5913
I0
sI5914
I0
sI5915
I0
sI5916
I4
sI5917
I4
sI5918
I4
sI5919
I3
sI5920
I3
sI5921
I5
sI5922
I0
sI5923
I2
sI5924
I3
sI5925
I0
sI5926
I0
sI5927
I0
sI5928
I4
sI5929
I1
sI5930
I4
sI5931
I4
sI5932
I0
sI5933
I0
sI5934
I0
sI5935
I4
sI5936
I3
sI5937
I0
sI5938
I0
sI5939
I0
sI5940
I4
sI5941
I0
sI5942
I1
sI5943
I0
sI5944
I0
sI5945
I0
sI5946
I0
sI5947
I0
sI5948
I0
sI5949
I0
sI5950
I0
sI5951
I0
sI5952
I0
sI5953
I0
sI5954
I0
sI5955
I4
sI5956
I0
sI5957
I0
sI5958
I0
sI5959
I0
sI5960
I0
sI5961
I0
sI5962
I0
sI5963
I5
sI5964
I1
sI5965
I0
sI5966
I3
sI5967
I0
sI5968
I0
sI5969
I2
sI5970
I2
sI5971
I0
sI5972
I0
sI5973
I0
sI5974
I4
sI5975
I0
sI5976
I0
sI5977
I4
sI5978
I3
sI5979
I0
sI5980
I4
sI5981
I0
sI5982
I3
sI5983
I0
sI5984
I0
sI5985
I0
sI5986
I5
sI5987
I0
sI5988
I5
sI5989
I0
sI5990
I0
sI5991
I4
sI5992
I0
sI5993
I4
sI5994
I0
sI5995
I4
sI5996
I4
sI5997
I4
sI5998
I0
sI5999
I0
sI6000
I0
sI6001
I0
sI6002
I0
sI6003
I4
sI6004
I5
sI6005
I2
sI6006
I4
sI6007
I0
sI6008
I0
sI6009
I6
sI6010
I6
sI6011
I4
sI6012
I0
sI6013
I4
sI6014
I0
sI6015
I4
sI6016
I1
sI6017
I0
sI6018
I4
sI6019
I0
sI6020
I4
sI6021
I0
sI6022
I3
sI6023
I0
sI6024
I0
sI6025
I0
sI6026
I0
sI6027
I1
sI6028
I0
sI6029
I0
sI6030
I0
sI6031
I0
sI6032
I2
sI6033
I0
sI6034
I3
sI6035
I0
sI6036
I0
sI6037
I0
sI6038
I0
sI6039
I0
sI6040
I1
sI6041
I0
sI6042
I1
sI6043
I2
sI6044
I3
sI6045
I0
sI6046
I3
sI6047
I0
sI6048
I3
sI6049
I2
sI6050
I0
sI6051
I0
sI6052
I0
sI6053
I2
sI6054
I3
sI6055
I0
sI6056
I0
sI6057
I0
sI6058
I0
sI6059
I2
sI6060
I1
sI6061
I0
sI6062
I3
sI6063
I1
sI6064
I1
sI6065
I1
sI6066
I2
sI6067
I0
sI6068
I4
sI6069
I1
sI6070
I1
sI6071
I3
sI6072
I1
sI6073
I3
sI6074
I0
sI6075
I4
sI6076
I0
sI6077
I4
sI6078
I0
sI6079
I4
sI6080
I3
sI6081
I3
sI6082
I0
sI6083
I3
sI6084
I0
sI6085
I3
sI6086
I3
sI6087
I4
sI6088
I4
sI6089
I4
sI6090
I3
sI6091
I2
sI6092
I4
sI6093
I0
sI6094
I5
sI6095
I1
sI6096
I0
sI6097
I0
sI6098
I0
sI6099
I0
sI6100
I0
sI6101
I1
sI6102
I0
sI6103
I0
sI6104
I0
sI6105
I0
sI6106
I0
sI6107
I0
sI6108
I1
sI6109
I3
sI6110
I3
sI6111
I2
sI6112
I2
sI6113
I1
sI6114
I0
sI6115
I2
sI6116
I3
sI6117
I3
sI6118
I3
sI6119
I0
sI6120
I0
sI6121
I0
sI6122
I0
sI6123
I0
sI6124
I0
sI6125
I0
sI6126
I2
sI6127
I0
sI6128
I0
sI6129
I5
sI6130
I4
sI6131
I4
sI6132
I1
sI6133
I2
sI6134
I1
sI6135
I7
sI6136
I4
sI6137
I1
sI6138
I3
sI6139
I0
sI6140
I0
sI6141
I1
sI6142
I0
sI6143
I1
sI6144
I0
sI6145
I1
sI6146
I1
sI6147
I1
sI6148
I1
sI6149
I4
sI6150
I1
sI6151
I1
sI6152
I1
sI6153
I1
sI6154
I0
sI6155
I1
sI6156
I1
sI6157
I4
sI6158
I3
sI6159
I2
sI6160
I1
sI6161
I3
sI6162
I1
sI6163
I0
sI6164
I3
sI6165
I1
sI6166
I1
sI6167
I7
sI6168
I1
sI6169
I3
sI6170
I4
sI6171
I6
sI6172
I1
sI6173
I1
sI6174
I1
sI6175
I1
sI6176
I4
sI6177
I4
sI6178
I4
sI6179
I0
sI6180
I1
sI6181
I4
sI6182
I1
sI6183
I1
sI6184
I0
sI6185
I0
sI6186
I0
sI6187
I3
sI6188
I7
sI6189
I1
sI6190
I1
sI6191
I1
sI6192
I1
sI6193
I2
sI6194
I1
sI6195
I2
sI6196
I3
sI6197
I1
sI6198
I2
sI6199
I2
sI6200
I1
sI6201
I1
sI6202
I1
sI6203
I1
sI6204
I1
sI6205
I1
sI6206
I2
sI6207
I2
sI6208
I3
sI6209
I3
sI6210
I3
sI6211
I0
sI6212
I0
sI6213
I4
sI6214
I4
sI6215
I0
sI6216
I1
sI6217
I2
sI6218
I1
sI6219
I3
sI6220
I7
sI6221
I0
sI6222
I3
sI6223
I0
sI6224
I4
sI6225
I1
sI6226
I0
sI6227
I4
sI6228
I0
sI6229
I1
sI6230
I2
sI6231
I1
sI6232
I0
sI6233
I1
sI6234
I1
sI6235
I4
sI6236
I1
sI6237
I0
sI6238
I0
sI6239
I0
sI6240
I6
sI6241
I2
sI6242
I1
sI6243
I1
sI6244
I2
sI6245
I6
sI6246
I3
sI6247
I2
sI6248
I0
sI6249
I1
sI6250
I2
sI6251
I5
sI6252
I1
sI6253
I3
sI6254
I0
sI6255
I1
sI6256
I0
sI6257
I1
sI6258
I2
sI6259
I2
sI6260
I4
sI6261
I4
sI6262
I0
sI6263
I0
sI6264
I0
sI6265
I0
sI6266
I0
sI6267
I1
sI6268
I1
sI6269
I0
sI6270
I0
sI6271
I1
sI6272
I0
sI6273
I0
sI6274
I0
sI6275
I1
sI6276
I1
sI6277
I0
sI6278
I4
sI6279
I1
sI6280
I4
sI6281
I0
sI6282
I2
sI6283
I1
sI6284
I4
sI6285
I2
sI6286
I4
sI6287
I0
sI6288
I0
sI6289
I2
sI6290
I0
sI6291
I0
sI6292
I2
sI6293
I3
sI6294
I3
sI6295
I3
sI6296
I0
sI6297
I4
sI6298
I2
sI6299
I2
sI6300
I2
sI6301
I2
sI6302
I2
sI6303
I0
sI6304
I3
sI6305
I0
sI6306
I4
sI6307
I0
sI6308
I0
sI6309
I0
sI6310
I3
sI6311
I6
sI6312
I6
sI6313
I2
sI6314
I3
sI6315
I4
sI6316
I0
sI6317
I4
sI6318
I0
sI6319
I4
sI6320
I6
sI6321
I0
sI6322
I0
sI6323
I0
sI6324
I0
sI6325
I3
sI6326
I0
sI6327
I0
sI6328
I0
sI6329
I3
sI6330
I0
sI6331
I0
sI6332
I1
sI6333
I0
sI6334
I0
sI6335
I0
sI6336
I0
sI6337
I0
sI6338
I2
sI6339
I0
sI6340
I1
sI6341
I3
sI6342
I2
sI6343
I1
sI6344
I4
sI6345
I1
sI6346
I1
sI6347
I2
sI6348
I0
sI6349
I1
sI6350
I0
sI6351
I0
sI6352
I0
sI6353
I0
sI6354
I0
sI6355
I0
sI6356
I1
sI6357
I6
sI6358
I0
sI6359
I3
sI6360
I0
sI6361
I0
sI6362
I0
sI6363
I1
sI6364
I0
sI6365
I0
sI6366
I0
sI6367
I0
sI6368
I0
sI6369
I1
sI6370
I2
sI6371
I2
sI6372
I1
sI6373
I1
sI6374
I0
sI6375
I3
sI6376
I2
sI6377
I1
sI6378
I1
sI6379
I2
sI6380
I0
sI6381
I0
sI6382
I0
sI6383
I0
sI6384
I0
sI6385
I2
sI6386
I1
sI6387
I1
sI6388
I0
sI6389
I3
sI6390
I1
sI6391
I3
sI6392
I2
sI6393
I2
sI6394
I2
sI6395
I1
sI6396
I3
sI6397
I0
sI6398
I2
sI6399
I1
sI6400
I2
sI6401
I2
sI6402
I2
sI6403
I1
sI6404
I0
sI6405
I0
sI6406
I0
sI6407
I0
sI6408
I0
sI6409
I6
sI6410
I1
sI6411
I1
sI6412
I1
sI6413
I1
sI6414
I1
sI6415
I1
sI6416
I2
sI6417
I3
sI6418
I0
sI6419
I2
sI6420
I2
sI6421
I1
sI6422
I0
sI6423
I2
sI6424
I0
sI6425
I0
sI6426
I0
sI6427
I0
sI6428
I0
sI6429
I0
sI6430
I0
sI6431
I3
sI6432
I0
sI6433
I1
sI6434
I1
sI6435
I0
sI6436
I0
sI6437
I0
sI6438
I2
sI6439
I2
sI6440
I6
sI6441
I1
sI6442
I1
sI6443
I2
sI6444
I2
sI6445
I0
sI6446
I0
sI6447
I0
sI6448
I2
sI6449
I2
sI6450
I2
sI6451
I1
sI6452
I3
sI6453
I0
sI6454
I0
sI6455
I1
sI6456
I0
sI6457
I6
sI6458
I1
sI6459
I1
sI6460
I3
sI6461
I0
sI6462
I0
sI6463
I0
sI6464
I0
sI6465
I0
sI6466
I0
sI6467
I0
sI6468
I0
sI6469
I0
sI6470
I0
sI6471
I1
sI6472
I1
sI6473
I2
sI6474
I2
sI6475
I2
sI6476
I1
sI6477
I1
sI6478
I4
sI6479
I1
sI6480
I0
sI6481
I4
sI6482
I0
sI6483
I2
sI6484
I2
sI6485
I4
sI6486
I4
sI6487
I2
sI6488
I0
sI6489
I0
sI6490
I1
sI6491
I0
sI6492
I0
sI6493
I2
sI6494
I0
sI6495
I0
sI6496
I0
sI6497
I0
sI6498
I0
sI6499
I0
sI6500
I0
sI6501
I1
sI6502
I0
sI6503
I0
sI6504
I0
sI6505
I0
sI6506
I5
sI6507
I0
sI6508
I3
sI6509
I1
sI6510
I1
sI6511
I0
sI6512
I0
sI6513
I1
sI6514
I2
sI6515
I4
sI6516
I4
sI6517
I0
sI6518
I4
sI6519
I4
sI6520
I0
sI6521
I5
sI6522
I4
sI6523
I4
sI6524
I0
sI6525
I4
sI6526
I1
sI6527
I1
sI6528
I4
sI6529
I4
sI6530
I0
sI6531
I0
sI6532
I0
sI6533
I2
sI6534
I0
sI6535
I0
sI6536
I4
sI6537
I0
sI6538
I4
sI6539
I4
sI6540
I4
sI6541
I4
sI6542
I0
sI6543
I4
sI6544
I0
sI6545
I4
sI6546
I5
sI6547
I3
sI6548
I0
sI6549
I0
sI6550
I4
sI6551
I0
sI6552
I1
sI6553
I3
sI6554
I0
sI6555
I0
sI6556
I4
sI6557
I4
sI6558
I0
sI6559
I1
sI6560
I0
sI6561
I0
sI6562
I0
sI6563
I0
sI6564
I0
sI6565
I0
sI6566
I0
sI6567
I0
sI6568
I0
sI6569
I0
sI6570
I0
sI6571
I4
sI6572
I0
sI6573
I0
sI6574
I4
sI6575
I0
sI6576
I4
sI6577
I0
sI6578
I0
sI6579
I0
sI6580
I0
sI6581
I0
sI6582
I0
sI6583
I0
sI6584
I0
sI6585
I0
sI6586
I0
sI6587
I0
sI6588
I0
sI6589
I0
sI6590
I0
sI6591
I1
sI6592
I3
sI6593
I0
sI6594
I0
sI6595
I0
sI6596
I0
sI6597
I3
sI6598
I4
sI6599
I0
sI6600
I0
sI6601
I4
sI6602
I4
sI6603
I4
sI6604
I0
sI6605
I0
sI6606
I0
sI6607
I0
sI6608
I0
sI6609
I4
sI6610
I4
sI6611
I4
sI6612
I0
sI6613
I0
sI6614
I0
sI6615
I0
sI6616
I4
sI6617
I2
sI6618
I2
sI6619
I0
sI6620
I4
sI6621
I0
sI6622
I0
sI6623
I0
sI6624
I0
sI6625
I4
sI6626
I6
sI6627
I0
sI6628
I0
sI6629
I0
sI6630
I2
sI6631
I6
sI6632
I5
sI6633
I4
sI6634
I4
sI6635
I0
sI6636
I2
sI6637
I4
sI6638
I4
sI6639
I4
sI6640
I0
sI6641
I3
sI6642
I0
sI6643
I3
sI6644
I0
sI6645
I0
sI6646
I0
sI6647
I0
sI6648
I0
sI6649
I2
sI6650
I0
sI6651
I1
sI6652
I3
sI6653
I0
sI6654
I0
sI6655
I0
sI6656
I0
sI6657
I1
sI6658
I0
sI6659
I0
sI6660
I0
sI6661
I0
sI6662
I0
sI6663
I0
sI6664
I3
sI6665
I0
sI6666
I0
sI6667
I0
sI6668
I0
sI6669
I0
sI6670
I4
sI6671
I4
sI6672
I1
sI6673
I0
sI6674
I0
sI6675
I2
sI6676
I0
sI6677
I4
sI6678
I0
sI6679
I0
sI6680
I1
sI6681
I0
sI6682
I0
sI6683
I3
sI6684
I1
sI6685
I3
sI6686
I0
sI6687
I1
sI6688
I1
sI6689
I0
sI6690
I1
sI6691
I2
sI6692
I3
sI6693
I0
sI6694
I0
sI6695
I0
sI6696
I0
sI6697
I2
sI6698
I1
sI6699
I0
sI6700
I2
sI6701
I0
sI6702
I0
sI6703
I0
sI6704
I2
sI6705
I4
sI6706
I2
sI6707
I3
sI6708
I2
sI6709
I3
sI6710
I2
sI6711
I3
sI6712
I0
sI6713
I5
sI6714
I4
sI6715
I3
sI6716
I3
sI6717
I1
sI6718
I0
sI6719
I0
sI6720
I0
sI6721
I0
sI6722
I4
sI6723
I0
sI6724
I4
sI6725
I4
sI6726
I1
sI6727
I0
sI6728
I0
sI6729
I3
sI6730
I3
sI6731
I0
sI6732
I2
sI6733
I3
sI6734
I1
sI6735
I4
sI6736
I4
sI6737
I2
sI6738
I4
sI6739
I2
sI6740
I4
sI6741
I4
sI6742
I3
sI6743
I0
sI6744
I0
sI6745
I0
sI6746
I2
sI6747
I0
sI6748
I0
sI6749
I1
sI6750
I0
sI6751
I3
sI6752
I0
sI6753
I0
sI6754
I5
sI6755
I5
sI6756
I0
sI6757
I0
sI6758
I3
sI6759
I1
sI6760
I3
sI6761
I1
sI6762
I3
sI6763
I2
sI6764
I2
sI6765
I2
sI6766
I3
sI6767
I0
sI6768
I0
sI6769
I0
sI6770
I1
sI6771
I0
sI6772
I1
sI6773
I0
sI6774
I0
sI6775
I0
sI6776
I0
sI6777
I0
sI6778
I0
sI6779
I3
sI6780
I1
sI6781
I2
sI6782
I2
sI6783
I0
sI6784
I0
sI6785
I2
sI6786
I3
sI6787
I4
sI6788
I1
sI6789
I2
sI6790
I3
sI6791
I0
sI6792
I4
sI6793
I3
sI6794
I3
sI6795
I4
sI6796
I4
sI6797
I1
sI6798
I3
sI6799
I4
sI6800
I1
sI6801
I1
sI6802
I1
sI6803
I3
sI6804
I1
sI6805
I3
sI6806
I2
sI6807
I1
sI6808
I1
sI6809
I2
sI6810
I2
sI6811
I3
sI6812
I1
sI6813
I0
sI6814
I1
sI6815
I0
sI6816
I4
sI6817
I0
sI6818
I4
sI6819
I1
sI6820
I2
sI6821
I1
sI6822
I0
sI6823
I2
sI6824
I1
sI6825
I0
sI6826
I4
sI6827
I1
sI6828
I3
sI6829
I4
sI6830
I4
sI6831
I4
sI6832
I4
sI6833
I1
sI6834
I0
sI6835
I0
sI6836
I4
sI6837
I1
sI6838
I1
sI6839
I1
sI6840
I2
sI6841
I1
sI6842
I1
sI6843
I1
sI6844
I1
sI6845
I0
sI6846
I1
sI6847
I1
sI6848
I1
sI6849
I1
sI6850
I0
sI6851
I1
sI6852
I3
sI6853
I1
sI6854
I3
sI6855
I3
sI6856
I3
sI6857
I3
sI6858
I3
sI6859
I4
sI6860
I2
sI6861
I0
sI6862
I0
sI6863
I1
sI6864
I0
sI6865
I2
sI6866
I7
sI6867
I2
sI6868
I0
sI6869
I4
sI6870
I0
sI6871
I3
sI6872
I0
sI6873
I4
sI6874
I4
sI6875
I0
sI6876
I0
sI6877
I1
sI6878
I0
sI6879
I3
sI6880
I1
sI6881
I4
sI6882
I0
sI6883
I0
sI6884
I1
sI6885
I2
sI6886
I1
sI6887
I0
sI6888
I1
sI6889
I3
sI6890
I0
sI6891
I1
sI6892
I1
sI6893
I6
sI6894
I0
sI6895
I2
sI6896
I0
sI6897
I6
sI6898
I1
sI6899
I1
sI6900
I3
sI6901
I0
sI6902
I1
sI6903
I2
sI6904
I2
sI6905
I1
sI6906
I1
sI6907
I0
sI6908
I9
sI6909
I0
sI6910
I1
sI6911
I1
sI6912
I2
sI6913
I0
sI6914
I0
sI6915
I4
sI6916
I1
sI6917
I1
sI6918
I3
sI6919
I0
sI6920
I0
sI6921
I1
sI6922
I4
sI6923
I5
sI6924
I0
sI6925
I0
sI6926
I4
sI6927
I0
sI6928
I3
sI6929
I1
sI6930
I1
sI6931
I0
sI6932
I0
sI6933
I0
sI6934
I2
sI6935
I0
sI6936
I0
sI6937
I0
sI6938
I1
sI6939
I0
sI6940
I3
sI6941
I9
sI6942
I2
sI6943
I1
sI6944
I4
sI6945
I0
sI6946
I5
sI6947
I0
sI6948
I0
sI6949
I4
sI6950
I0
sI6951
I3
sI6952
I2
sI6953
I1
sI6954
I4
sI6955
I0
sI6956
I2
sI6957
I2
sI6958
I3
sI6959
I3
sI6960
I3
sI6961
I3
sI6962
I1
sI6963
I4
sI6964
I3
sI6965
I3
sI6966
I0
sI6967
I0
sI6968
I3
sI6969
I2
sI6970
I0
sI6971
I0
sI6972
I0
sI6973
I2
sI6974
I1
sI6975
I3
sI6976
I2
sI6977
I3
sI6978
I0
sI6979
I2
sI6980
I4
sI6981
I0
sI6982
I4
sI6983
I0
sI6984
I0
sI6985
I0
sI6986
I0
sI6987
I0
sI6988
I0
sI6989
I0
sI6990
I1
sI6991
I0
sI6992
I0
sI6993
I0
sI6994
I0
sI6995
I0
sI6996
I0
sI6997
I0
sI6998
I1
sI6999
I0
sI7000
I1
sI7001
I3
sI7002
I1
sI7003
I0
sI7004
I0
sI7005
I0
sI7006
I0
sI7007
I0
sI7008
I2
sI7009
I1
sI7010
I0
sI7011
I0
sI7012
I0
sI7013
I1
sI7014
I0
sI7015
I3
sI7016
I0
sI7017
I0
sI7018
I3
sI7019
I0
sI7020
I0
sI7021
I1
sI7022
I2
sI7023
I0
sI7024
I0
sI7025
I0
sI7026
I4
sI7027
I0
sI7028
I4
sI7029
I5
sI7030
I1
sI7031
I6
sI7032
I6
sI7033
I0
sI7034
I0
sI7035
I1
sI7036
I6
sI7037
I0
sI7038
I0
sI7039
I1
sI7040
I0
sI7041
I1
sI7042
I1
sI7043
I1
sI7044
I1
sI7045
I0
sI7046
I1
sI7047
I1
sI7048
I0
sI7049
I2
sI7050
I3
sI7051
I1
sI7052
I0
sI7053
I0
sI7054
I0
sI7055
I0
sI7056
I0
sI7057
I3
sI7058
I1
sI7059
I1
sI7060
I2
sI7061
I1
sI7062
I3
sI7063
I0
sI7064
I2
sI7065
I2
sI7066
I1
sI7067
I1
sI7068
I1
sI7069
I1
sI7070
I1
sI7071
I2
sI7072
I3
sI7073
I1
sI7074
I2
sI7075
I2
sI7076
I2
sI7077
I1
sI7078
I0
sI7079
I0
sI7080
I1
sI7081
I1
sI7082
I1
sI7083
I2
sI7084
I1
sI7085
I1
sI7086
I1
sI7087
I1
sI7088
I0
sI7089
I1
sI7090
I1
sI7091
I3
sI7092
I2
sI7093
I2
sI7094
I1
sI7095
I1
sI7096
I1
sI7097
I3
sI7098
I0
sI7099
I6
sI7100
I3
sI7101
I1
sI7102
I0
sI7103
I0
sI7104
I0
sI7105
I0
sI7106
I0
sI7107
I0
sI7108
I3
sI7109
I3
sI7110
I0
sI7111
I1
sI7112
I3
sI7113
I0
sI7114
I2
sI7115
I1
sI7116
I0
sI7117
I3
sI7118
I3
sI7119
I2
sI7120
I0
sI7121
I0
sI7122
I0
sI7123
I4
sI7124
I4
sI7125
I3
sI7126
I3
sI7127
I6
sI7128
I1
sI7129
I1
sI7130
I0
sI7131
I4
sI7132
I6
sI7133
I4
sI7134
I0
sI7135
I1
sI7136
I2
sI7137
I0
sI7138
I2
sI7139
I1
sI7140
I0
sI7141
I0
sI7142
I4
sI7143
I0
sI7144
I6
sI7145
I0
sI7146
I0
sI7147
I0
sI7148
I0
sI7149
I0
sI7150
I3
sI7151
I1
sI7152
I4
sI7153
I4
sI7154
I1
sI7155
I1
sI7156
I1
sI7157
I1
sI7158
I3
sI7159
I1
sI7160
I0
sI7161
I0
sI7162
I1
sI7163
I0
sI7164
I0
sI7165
I0
sI7166
I1
sI7167
I2
sI7168
I0
sI7169
I0
sI7170
I0
sI7171
I1
sI7172
I2
sI7173
I0
sI7174
I0
sI7175
I0
sI7176
I0
sI7177
I0
sI7178
I0
sI7179
I0
sI7180
I0
sI7181
I0
sI7182
I0
sI7183
I0
sI7184
I1
sI7185
I0
sI7186
I2
sI7187
I2
sI7188
I1
sI7189
I3
sI7190
I0
sI7191
I1
sI7192
I0
sI7193
I0
sI7194
I0
sI7195
I0
sI7196
I0
sI7197
I0
sI7198
I0
sI7199
I0
sI7200
I0
sI7201
I0
sI7202
I0
sI7203
I1
sI7204
I1
sI7205
I3
sI7206
I2
sI7207
I0
sI7208
I0
sI7209
I1
sI7210
I3
sI7211
I4
sI7212
I5
sI7213
I4
sI7214
I0
sI7215
I0
sI7216
I4
sI7217
I4
sI7218
I4
sI7219
I4
sI7220
I5
sI7221
I4
sI7222
I4
sI7223
I4
sI7224
I0
sI7225
I0
sI7226
I4
sI7227
I4
sI7228
I0
sI7229
I0
sI7230
I0
sI7231
I0
sI7232
I0
sI7233
I4
sI7234
I0
sI7235
I0
sI7236
I4
sI7237
I3
sI7238
I4
sI7239
I4
sI7240
I4
sI7241
I4
sI7242
I4
sI7243
I4
sI7244
I4
sI7245
I4
sI7246
I4
sI7247
I0
sI7248
I4
sI7249
I0
sI7250
I3
sI7251
I0
sI7252
I4
sI7253
I0
sI7254
I0
sI7255
I4
sI7256
I0
sI7257
I4
sI7258
I4
sI7259
I4
sI7260
I4
sI7261
I4
sI7262
I3
sI7263
I0
sI7264
I1
sI7265
I0
sI7266
I0
sI7267
I1
sI7268
I0
sI7269
I2
sI7270
I0
sI7271
I3
sI7272
I2
sI7273
I1
sI7274
I0
sI7275
I0
sI7276
I0
sI7277
I0
sI7278
I0
sI7279
I0
sI7280
I4
sI7281
I4
sI7282
I0
sI7283
I4
sI7284
I4
sI7285
I4
sI7286
I0
sI7287
I0
sI7288
I0
sI7289
I0
sI7290
I0
sI7291
I0
sI7292
I0
sI7293
I0
sI7294
I0
sI7295
I0
sI7296
I0
sI7297
I0
sI7298
I0
sI7299
I0
sI7300
I0
sI7301
I0
sI7302
I0
sI7303
I0
sI7304
I0
sI7305
I0
sI7306
I0
sI7307
I4
sI7308
I3
sI7309
I0
sI7310
I0
sI7311
I0
sI7312
I3
sI7313
I0
sI7314
I4
sI7315
I0
sI7316
I0
sI7317
I0
sI7318
I1
sI7319
I0
sI7320
I1
sI7321
I2
sI7322
I0
sI7323
I3
sI7324
I3
sI7325
I0
sI7326
I0
sI7327
I0
sI7328
I4
sI7329
I3
sI7330
I0
sI7331
I0
sI7332
I4
sI7333
I0
sI7334
I0
sI7335
I0
sI7336
I0
sI7337
I3
sI7338
I4
sI7339
I4
sI7340
I4
sI7341
I2
sI7342
I4
sI7343
I1
sI7344
I0
sI7345
I0
sI7346
I2
sI7347
I3
sI7348
I6
sI7349
I6
sI7350
I0
sI7351
I0
sI7352
I4
sI7353
I0
sI7354
I0
sI7355
I0
sI7356
I0
sI7357
I4
sI7358
I4
sI7359
I0
sI7360
I0
sI7361
I0
sI7362
I0
sI7363
I0
sI7364
I0
sI7365
I0
sI7366
I2
sI7367
I3
sI7368
I1
sI7369
I0
sI7370
I2
sI7371
I0
sI7372
I0
sI7373
I0
sI7374
I0
sI7375
I3
sI7376
I3
sI7377
I0
sI7378
I0
sI7379
I0
sI7380
I2
sI7381
I2
sI7382
I2
sI7383
I0
sI7384
I1
sI7385
I0
sI7386
I0
sI7387
I0
sI7388
I4
sI7389
I0
sI7390
I4
sI7391
I4
sI7392
I0
sI7393
I0
sI7394
I4
sI7395
I1
sI7396
I0
sI7397
I0
sI7398
I1
sI7399
I4
sI7400
I0
sI7401
I3
sI7402
I2
sI7403
I3
sI7404
I0
sI7405
I4
sI7406
I0
sI7407
I0
sI7408
I1
sI7409
I1
sI7410
I0
sI7411
I0
sI7412
I0
sI7413
I0
sI7414
I4
sI7415
I2
sI7416
I3
sI7417
I3
sI7418
I3
sI7419
I0
sI7420
I3
sI7421
I0
sI7422
I0
sI7423
I1
sI7424
I1
sI7425
I4
sI7426
I2
sI7427
I3
sI7428
I0
sI7429
I3
sI7430
I0
sI7431
I3
sI7432
I3
sI7433
I0
sI7434
I2
sI7435
I2
sI7436
I1
sI7437
I2
sI7438
I4
sI7439
I0
sI7440
I5
sI7441
I0
sI7442
I4
sI7443
I1
sI7444
I4
sI7445
I0
sI7446
I0
sI7447
I2
sI7448
I0
sI7449
I4
sI7450
I0
sI7451
I3
sI7452
I2
sI7453
I0
sI7454
I1
sI7455
I4
sI7456
I0
sI7457
I3
sI7458
I2
sI7459
I3
sI7460
I3
sI7461
I4
sI7462
I4
sI7463
I4
sI7464
I4
sI7465
I4
sI7466
I2
sI7467
I0
sI7468
I0
sI7469
I0
sI7470
I0
sI7471
I6
sI7472
I0
sI7473
I2
sI7474
I0
sI7475
I0
sI7476
I0
sI7477
I0
sI7478
I0
sI7479
I0
sI7480
I3
sI7481
I3
sI7482
I2
sI7483
I0
sI7484
I3
sI7485
I1
sI7486
I1
sI7487
I3
sI7488
I3
sI7489
I0
sI7490
I3
sI7491
I3
sI7492
I1
sI7493
I3
sI7494
I1
sI7495
I2
sI7496
I2
sI7497
I3
sI7498
I0
sI7499
I4
sI7500
I0
sI7501
I0
sI7502
I2
sI7503
I1
sI7504
I1
sI7505
I0
sI7506
I1
sI7507
I3
sI7508
I3
sI7509
I2
sI7510
I0
sI7511
I4
sI7512
I0
sI7513
I4
sI7514
I0
sI7515
I0
sI7516
I1
sI7517
I1
sI7518
I1
sI7519
I1
sI7520
I0
sI7521
I3
sI7522
I4
sI7523
I3
sI7524
I6
sI7525
I9
sI7526
I1
sI7527
I4
sI7528
I1
sI7529
I1
sI7530
I1
sI7531
I1
sI7532
I2
sI7533
I6
sI7534
I1
sI7535
I1
sI7536
I1
sI7537
I2
sI7538
I1
sI7539
I1
sI7540
I1
sI7541
I0
sI7542
I0
sI7543
I1
sI7544
I1
sI7545
I1
sI7546
I2
sI7547
I2
sI7548
I1
sI7549
I1
sI7550
I1
sI7551
I0
sI7552
I1
sI7553
I3
sI7554
I1
sI7555
I4
sI7556
I1
sI7557
I3
sI7558
I2
sI7559
I2
sI7560
I1
sI7561
I0
sI7562
I1
sI7563
I0
sI7564
I1
sI7565
I6
sI7566
I1
sI7567
I3
sI7568
I2
sI7569
I3
sI7570
I1
sI7571
I1
sI7572
I1
sI7573
I6
sI7574
I2
sI7575
I4
sI7576
I0
sI7577
I2
sI7578
I0
sI7579
I4
sI7580
I1
sI7581
I1
sI7582
I1
sI7583
I0
sI7584
I3
sI7585
I4
sI7586
I1
sI7587
I1
sI7588
I2
sI7589
I5
sI7590
I0
sI7591
I2
sI7592
I0
sI7593
I1
sI7594
I1
sI7595
I0
sI7596
I0
sI7597
I3
sI7598
I4
sI7599
I0
sI7600
I0
sI7601
I1
sI7602
I1
sI7603
I1
sI7604
I0
sI7605
I1
sI7606
I2
sI7607
I0
sI7608
I3
sI7609
I0
sI7610
I2
sI7611
I1
sI7612
I1
sI7613
I1
sI7614
I1
sI7615
I2
sI7616
I1
sI7617
I2
sI7618
I0
sI7619
I0
sI7620
I2
sI7621
I0
sI7622
I1
sI7623
I0
sI7624
I1
sI7625
I0
sI7626
I3
sI7627
I1
sI7628
I4
sI7629
I1
sI7630
I7
sI7631
I1
sI7632
I1
sI7633
I1
sI7634
I2
sI7635
I1
sI7636
I1
sI7637
I1
sI7638
I1
sI7639
I3
sI7640
I4
sI7641
I1
sI7642
I4
sI7643
I4
sI7644
I4
sI7645
I4
sI7646
I4
sI7647
I0
sI7648
I4
sI7649
I0
sI7650
I0
sI7651
I1
sI7652
I1
sI7653
I1
sI7654
I1
sI7655
I4
sI7656
I0
sI7657
I1
sI7658
I0
sI7659
I0
sI7660
I4
sI7661
I1
sI7662
I0
sI7663
I0
sI7664
I0
sI7665
I0
sI7666
I0
sI7667
I0
sI7668
I0
sI7669
I1
sI7670
I1
sI7671
I0
sI7672
I0
sI7673
I0
sI7674
I4
sI7675
I0
sI7676
I0
sI7677
I4
sI7678
I4
sI7679
I0
sI7680
I5
sI7681
I0
sI7682
I0
sI7683
I0
sI7684
I3
sI7685
I0
sI7686
I0
sI7687
I3
sI7688
I0
sI7689
I2
sI7690
I4
sI7691
I0
sI7692
I0
sI7693
I0
sI7694
I4
sI7695
I7
sI7696
I0
sI7697
I1
sI7698
I4
sI7699
I2
sI7700
I5
sI7701
I0
sI7702
I4
sI7703
I4
sI7704
I2
sI7705
I4
sI7706
I2
sI7707
I2
sI7708
I2
sI7709
I2
sI7710
I3
sI7711
I0
sI7712
I4
sI7713
I3
sI7714
I0
sI7715
I4
sI7716
I0
sI7717
I0
sI7718
I3
sI7719
I0
sI7720
I0
sI7721
I3
sI7722
I2
sI7723
I3
sI7724
I2
sI7725
I2
sI7726
I0
sI7727
I0
sI7728
I4
sI7729
I4
sI7730
I0
sI7731
I0
sI7732
I0
sI7733
I0
sI7734
I3
sI7735
I0
sI7736
I0
sI7737
I0
sI7738
I0
sI7739
I0
sI7740
I0
sI7741
I4
sI7742
I1
sI7743
I4
sI7744
I2
sI7745
I0
sI7746
I0
sI7747
I3
sI7748
I0
sI7749
I1
sI7750
I1
sI7751
I2
sI7752
I0
sI7753
I3
sI7754
I1
sI7755
I0
sI7756
I0
sI7757
I3
sI7758
I0
sI7759
I3
sI7760
I0
sI7761
I0
sI7762
I3
sI7763
I0
sI7764
I0
sI7765
I0
sI7766
I0
sI7767
I0
sI7768
I6
sI7769
I6
sI7770
I0
sI7771
I0
sI7772
I0
sI7773
I1
sI7774
I0
sI7775
I0
sI7776
I0
sI7777
I1
sI7778
I0
sI7779
I1
sI7780
I0
sI7781
I0
sI7782
I1
sI7783
I1
sI7784
I0
sI7785
I0
sI7786
I2
sI7787
I6
sI7788
I6
sI7789
I0
sI7790
I0
sI7791
I0
sI7792
I6
sI7793
I1
sI7794
I0
sI7795
I1
sI7796
I3
sI7797
I0
sI7798
I6
sI7799
I3
sI7800
I1
sI7801
I2
sI7802
I0
sI7803
I1
sI7804
I3
sI7805
I1
sI7806
I2
sI7807
I3
sI7808
I1
sI7809
I1
sI7810
I1
sI7811
I2
sI7812
I1
sI7813
I2
sI7814
I1
sI7815
I1
sI7816
I1
sI7817
I1
sI7818
I1
sI7819
I1
sI7820
I1
sI7821
I1
sI7822
I1
sI7823
I1
sI7824
I1
sI7825
I3
sI7826
I3
sI7827
I1
sI7828
I1
sI7829
I0
sI7830
I1
sI7831
I1
sI7832
I0
sI7833
I1
sI7834
I1
sI7835
I1
sI7836
I2
sI7837
I3
sI7838
I2
sI7839
I1
sI7840
I1
sI7841
I0
sI7842
I3
sI7843
I3
sI7844
I3
sI7845
I2
sI7846
I1
sI7847
I3
sI7848
I4
sI7849
I1
sI7850
I1
sI7851
I1
sI7852
I0
sI7853
I0
sI7854
I0
sI7855
I2
sI7856
I0
sI7857
I0
sI7858
I3
sI7859
I1
sI7860
I0
sI7861
I0
sI7862
I3
sI7863
I6
sI7864
I0
sI7865
I3
sI7866
I0
sI7867
I5
sI7868
I0
sI7869
I0
sI7870
I1
sI7871
I3
sI7872
I2
sI7873
I1
sI7874
I0
sI7875
I2
sI7876
I4
sI7877
I1
sI7878
I3
sI7879
I1
sI7880
I3
sI7881
I0
sI7882
I4
sI7883
I2
sI7884
I2
sI7885
I6
sI7886
I0
sI7887
I6
sI7888
I6
sI7889
I6
sI7890
I0
sI7891
I1
sI7892
I2
sI7893
I1
sI7894
I2
sI7895
I2
sI7896
I0
sI7897
I0
sI7898
I4
sI7899
I0
sI7900
I1
sI7901
I6
sI7902
I2
sI7903
I1
sI7904
I2
sI7905
I1
sI7906
I1
sI7907
I0
sI7908
I1
sI7909
I4
sI7910
I0
sI7911
I3
sI7912
I0
sI7913
I0
sI7914
I0
sI7915
I2
sI7916
I0
sI7917
I6
sI7918
I1
sI7919
I3
sI7920
I2
sI7921
I0
sI7922
I0
sI7923
I2
sI7924
I0
sI7925
I6
sI7926
I2
sI7927
I4
sI7928
I2
sI7929
I0
sI7930
I1
sI7931
I0
sI7932
I1
sI7933
I2
sI7934
I1
sI7935
I2
sI7936
I0
sI7937
I0
sI7938
I3
sI7939
I3
sI7940
I0
sI7941
I0
sI7942
I0
sI7943
I4
sI7944
I0
sI7945
I4
sI7946
I0
sI7947
I0
sI7948
I0
sI7949
I3
sI7950
I0
sI7951
I2
sI7952
I3
sI7953
I3
sI7954
I1
sI7955
I0
sI7956
I1
sI7957
I3
sI7958
I0
sI7959
I1
sI7960
I1
sI7961
I0
sI7962
I0
sI7963
I0
sI7964
I3
sI7965
I0
sI7966
I3
sI7967
I1
sI7968
I2
sI7969
I0
sI7970
I0
sI7971
I4
sI7972
I1
sI7973
I4
sI7974
I4
sI7975
I4
sI7976
I0
sI7977
I5
sI7978
I3
sI7979
I2
sI7980
I0
sI7981
I0
sI7982
I4
sI7983
I0
sI7984
I0
sI7985
I4
sI7986
I4
sI7987
I0
sI7988
I2
sI7989
I4
sI7990
I0
sI7991
I4
sI7992
I3
sI7993
I0
sI7994
I0
sI7995
I0
sI7996
I0
sI7997
I0
sI7998
I0
sI7999
I4
sI8000
I0
sI8001
I3
sI8002
I0
sI8003
I5
sI8004
I3
sI8005
I4
sI8006
I3
sI8007
I0
sI8008
I3
sI8009
I0
sI8010
I0
sI8011
I0
sI8012
I2
sI8013
I0
sI8014
I0
sI8015
I0
sI8016
I1
sI8017
I1
sI8018
I0
sI8019
I0
sI8020
I0
sI8021
I0
sI8022
I2
sI8023
I0
sI8024
I0
sI8025
I0
sI8026
I0
sI8027
I0
sI8028
I0
sI8029
I0
sI8030
I0
sI8031
I4
sI8032
I4
sI8033
I4
sI8034
I4
sI8035
I0
sI8036
I0
sI8037
I0
sI8038
I0
sI8039
I0
sI8040
I0
sI8041
I0
sI8042
I0
sI8043
I0
sI8044
I0
sI8045
I0
sI8046
I0
sI8047
I0
sI8048
I0
sI8049
I0
sI8050
I0
sI8051
I0
sI8052
I0
sI8053
I2
sI8054
I3
sI8055
I3
sI8056
I0
sI8057
I0
sI8058
I0
sI8059
I2
sI8060
I4
sI8061
I0
sI8062
I0
sI8063
I0
sI8064
I0
sI8065
I4
sI8066
I0
sI8067
I0
sI8068
I4
sI8069
I0
sI8070
I3
sI8071
I0
sI8072
I1
sI8073
I4
sI8074
I0
sI8075
I4
sI8076
I0
sI8077
I2
sI8078
I3
sI8079
I5
sI8080
I0
sI8081
I4
sI8082
I0
sI8083
I0
sI8084
I0
sI8085
I0
sI8086
I0
sI8087
I0
sI8088
I0
sI8089
I0
sI8090
I0
sI8091
I0
sI8092
I0
sI8093
I0
sI8094
I4
sI8095
I4
sI8096
I0
sI8097
I0
sI8098
I0
sI8099
I0
sI8100
I0
sI8101
I4
sI8102
I0
sI8103
I5
sI8104
I0
sI8105
I0
sI8106
I2
sI8107
I4
sI8108
I2
sI8109
I0
sI8110
I5
sI8111
I0
sI8112
I3
sI8113
I2
sI8114
I1
sI8115
I0
sI8116
I3
sI8117
I4
sI8118
I1
sI8119
I0
sI8120
I2
sI8121
I0
sI8122
I6
sI8123
I2
sI8124
I6
sI8125
I2
sI8126
I1
sI8127
I2
sI8128
I0
sI8129
I1
sI8130
I4
sI8131
I6
sI8132
I2
sI8133
I0
sI8134
I0
sI8135
I1
sI8136
I0
sI8137
I2
sI8138
I6
sI8139
I6
sI8140
I3
sI8141
I6
sI8142
I0
sI8143
I4
sI8144
I2
sI8145
I0
sI8146
I1
sI8147
I0
sI8148
I0
sI8149
I3
sI8150
I2
sI8151
I1
sI8152
I6
sI8153
I2
sI8154
I0
sI8155
I0
sI8156
I0
sI8157
I0
sI8158
I2
sI8159
I1
sI8160
I1
sI8161
I4
sI8162
I0
sI8163
I1
sI8164
I0
sI8165
I1
sI8166
I1
sI8167
I0
sI8168
I0
sI8169
I2
sI8170
I1
sI8171
I1
sI8172
I2
sI8173
I3
sI8174
I3
sI8175
I0
sI8176
I3
sI8177
I2
sI8178
I1
sI8179
I2
sI8180
I0
sI8181
I0
sI8182
I6
sI8183
I0
sI8184
I0
sI8185
I0
sI8186
I0
sI8187
I2
sI8188
I4
sI8189
I0
sI8190
I4
sI8191
I0
sI8192
I0
sI8193
I4
sI8194
I0
sI8195
I0
sI8196
I2
sI8197
I1
sI8198
I0
sI8199
I0
sI8200
I3
sI8201
I3
sI8202
I0
sI8203
I3
sI8204
I1
sI8205
I1
sI8206
I0
sI8207
I3
sI8208
I0
sI8209
I0
sI8210
I0
sI8211
I1
sI8212
I3
sI8213
I1
sI8214
I3
sI8215
I0
sI8216
I0
sI8217
I0
sI8218
I3
sI8219
I2
sI8220
I1
sI8221
I0
sI8222
I1
sI8223
I0
sI8224
I0
sI8225
I0
sI8226
I4
sI8227
I2
sI8228
I4
sI8229
I4
sI8230
I4
sI8231
I0
sI8232
I0
sI8233
I0
sI8234
I0
sI8235
I0
sI8236
I0
sI8237
I5
sI8238
I2
sI8239
I0
sI8240
I0
sI8241
I4
sI8242
I4
sI8243
I3
sI8244
I3
sI8245
I4
sI8246
I4
sI8247
I4
sI8248
I4
sI8249
I0
sI8250
I4
sI8251
I3
sI8252
I3
sI8253
I3
sI8254
I0
sI8255
I0
sI8256
I0
sI8257
I0
sI8258
I0
sI8259
I1
sI8260
I4
sI8261
I0
sI8262
I0
sI8263
I0
sI8264
I0
sI8265
I0
sI8266
I0
sI8267
I0
sI8268
I2
sI8269
I2
sI8270
I0
sI8271
I1
sI8272
I0
sI8273
I0
sI8274
I0
sI8275
I0
sI8276
I0
sI8277
I0
sI8278
I0
sI8279
I4
sI8280
I4
sI8281
I4
sI8282
I4
sI8283
I0
sI8284
I0
sI8285
I0
sI8286
I0
sI8287
I0
sI8288
I0
sI8289
I0
sI8290
I0
sI8291
I0
sI8292
I0
sI8293
I0
sI8294
I0
sI8295
I0
sI8296
I0
sI8297
I0
sI8298
I0
sI8299
I0
sI8300
I0
sI8301
I0
sI8302
I3
sI8303
I0
sI8304
I4
sI8305
I3
sI8306
I0
sI8307
I3
sI8308
I2
sI8309
I0
sI8310
I0
sI8311
I0
sI8312
I0
sI8313
I0
sI8314
I0
sI8315
I2
sI8316
I4
sI8317
I0
sI8318
I0
sI8319
I4
sI8320
I4
sI8321
I4
sI8322
I0
sI8323
I1
sI8324
I0
sI8325
I0
sI8326
I0
sI8327
I2
sI8328
I0
sI8329
I0
sI8330
I0
sI8331
I0
sI8332
I0
sI8333
I0
sI8334
I0
sI8335
I4
sI8336
I3
sI8337
I5
sI8338
I0
sI8339
I0
sI8340
I0
sI8341
I0
sI8342
I0
sI8343
I5
sI8344
I0
sI8345
I4
sI8346
I0
sI8347
I0
sI8348
I4
sI8349
I0
sI8350
I4
sI8351
I0
sI8352
I0
sI8353
I4
sI8354
I0
sI8355
I0
sI8356
I2
sI8357
I4
sI8358
I0
sI8359
I6
sI8360
I0
sI8361
I0
sI8362
I6
sI8363
I4
sI8364
I0
sI8365
I0
sI8366
I4
sI8367
I0
sI8368
I4
sI8369
I0
sI8370
I2
sI8371
I0
sI8372
I0
sI8373
I0
sI8374
I4
sI8375
I0
sI8376
I4
sI8377
I4
sI8378
I4
sI8379
I4
sI8380
I0
sI8381
I4
sI8382
I0
sI8383
I0
sI8384
I0
sI8385
I0
sI8386
I0
sI8387
I3
sI8388
I0
sI8389
I3
sI8390
I1
sI8391
I0
sI8392
I1
sI8393
I0
sI8394
I0
sI8395
I0
sI8396
I0
sI8397
I0
sI8398
I0
sI8399
I0
sI8400
I0
sI8401
I0
sI8402
I0
sI8403
I0
sI8404
I3
sI8405
I3
sI8406
I0
sI8407
I0
sI8408
I3
sI8409
I1
sI8410
I0
sI8411
I2
sI8412
I0
sI8413
I0
sI8414
I0
sI8415
I0
sI8416
I0
sI8417
I1
sI8418
I0
sI8419
I0
sI8420
I0
sI8421
I0
sI8422
I0
sI8423
I0
sI8424
I0
sI8425
I0
sI8426
I1
sI8427
I2
sI8428
I0
sI8429
I4
sI8430
I4
sI8431
I4
sI8432
I1
sI8433
I2
sI8434
I3
sI8435
I3
sI8436
I3
sI8437
I4
sI8438
I0
sI8439
I0
sI8440
I4
sI8441
I4
sI8442
I0
sI8443
I1
sI8444
I2
sI8445
I4
sI8446
I0
sI8447
I3
sI8448
I2
sI8449
I1
sI8450
I3
sI8451
I1
sI8452
I0
sI8453
I1
sI8454
I2
sI8455
I1
sI8456
I0
sI8457
I0
sI8458
I0
sI8459
I0
sI8460
I1
sI8461
I2
sI8462
I0
sI8463
I2
sI8464
I4
sI8465
I0
sI8466
I0
sI8467
I3
sI8468
I4
sI8469
I2
sI8470
I0
sI8471
I3
sI8472
I1
sI8473
I3
sI8474
I0
sI8475
I0
sI8476
I1
sI8477
I1
sI8478
I0
sI8479
I1
sI8480
I2
sI8481
I3
sI8482
I3
sI8483
I0
sI8484
I0
sI8485
I0
sI8486
I0
sI8487
I0
sI8488
I0
sI8489
I0
sI8490
I0
sI8491
I4
sI8492
I0
sI8493
I0
sI8494
I0
sI8495
I0
sI8496
I0
sI8497
I3
sI8498
I0
sI8499
I1
sI8500
I2
sI8501
I3
sI8502
I2
sI8503
I1
sI8504
I4
sI8505
I0
sI8506
I0
sI8507
I0
sI8508
I0
sI8509
I1
sI8510
I4
sI8511
I1
sI8512
I0
sI8513
I4
sI8514
I0
sI8515
I1
sI8516
I1
sI8517
I0
sI8518
I0
sI8519
I1
sI8520
I4
sI8521
I3
sI8522
I4
sI8523
I0
sI8524
I4
sI8525
I0
sI8526
I4
sI8527
I1
sI8528
I1
sI8529
I3
sI8530
I3
sI8531
I9
sI8532
I2
sI8533
I0
sI8534
I2
sI8535
I2
sI8536
I4
sI8537
I4
sI8538
I0
sI8539
I0
sI8540
I0
sI8541
I4
sI8542
I0
sI8543
I0
sI8544
I3
sI8545
I5
sI8546
I0
sI8547
I5
sI8548
I3
sI8549
I2
sI8550
I0
sI8551
I4
sI8552
I0
sI8553
I4
sI8554
I4
sI8555
I2
sI8556
I3
sI8557
I0
sI8558
I2
sI8559
I0
sI8560
I0
sI8561
I4
sI8562
I0
sI8563
I0
sI8564
I2
sI8565
I0
sI8566
I0
sI8567
I1
sI8568
I0
sI8569
I3
sI8570
I2
sI8571
I1
sI8572
I3
sI8573
I0
sI8574
I0
sI8575
I0
sI8576
I0
sI8577
I2
sI8578
I0
sI8579
I4
sI8580
I1
sI8581
I3
sI8582
I0
sI8583
I4
sI8584
I0
sI8585
I0
sI8586
I3
sI8587
I3
sI8588
I1
sI8589
I0
sI8590
I0
sI8591
I0
sI8592
I1
sI8593
I0
sI8594
I0
sI8595
I0
sI8596
I0
sI8597
I0
sI8598
I0
sI8599
I0
sI8600
I0
sI8601
I0
sI8602
I2
sI8603
I1
sI8604
I2
sI8605
I1
sI8606
I1
sI8607
I4
sI8608
I0
sI8609
I2
sI8610
I2
sI8611
I1
sI8612
I1
sI8613
I3
sI8614
I1
sI8615
I1
sI8616
I1
sI8617
I3
sI8618
I3
sI8619
I1
sI8620
I1
sI8621
I2
sI8622
I1
sI8623
I2
sI8624
I0
sI8625
I2
sI8626
I1
sI8627
I1
sI8628
I1
sI8629
I5
sI8630
I1
sI8631
I5
sI8632
I4
sI8633
I1
sI8634
I1
sI8635
I1
sI8636
I5
sI8637
I1
sI8638
I4
sI8639
I0
sI8640
I2
sI8641
I0
sI8642
I2
sI8643
I2
sI8644
I3
sI8645
I3
sI8646
I1
sI8647
I1
sI8648
I1
sI8649
I3
sI8650
I2
sI8651
I3
sI8652
I1
sI8653
I1
sI8654
I2
sI8655
I0
sI8656
I3
sI8657
I5
sI8658
I1
sI8659
I0
sI8660
I1
sI8661
I2
sI8662
I1
sI8663
I0
sI8664
I1
sI8665
I1
sI8666
I1
sI8667
I2
sI8668
I0
sI8669
I1
sI8670
I1
sI8671
I4
sI8672
I0
sI8673
I1
sI8674
I1
sI8675
I1
sI8676
I1
sI8677
I1
sI8678
I4
sI8679
I1
sI8680
I0
sI8681
I4
sI8682
I1
sI8683
I0
sI8684
I0
sI8685
I0
sI8686
I1
sI8687
I0
sI8688
I0
sI8689
I1
sI8690
I1
sI8691
I1
sI8692
I1
sI8693
I3
sI8694
I0
sI8695
I2
sI8696
I3
sI8697
I3
sI8698
I4
sI8699
I1
sI8700
I1
sI8701
I1
sI8702
I1
sI8703
I0
sI8704
I0
sI8705
I0
sI8706
I0
sI8707
I1
sI8708
I1
sI8709
I1
sI8710
I1
sI8711
I4
sI8712
I0
sI8713
I0
sI8714
I1
sI8715
I1
sI8716
I1
sI8717
I1
sI8718
I1
sI8719
I1
sI8720
I1
sI8721
I1
sI8722
I2
sI8723
I1
sI8724
I1
sI8725
I0
sI8726
I1
sI8727
I0
sI8728
I0
sI8729
I1
sI8730
I1
sI8731
I1
sI8732
I1
sI8733
I0
sI8734
I1
sI8735
I1
sI8736
I1
sI8737
I1
sI8738
I1
sI8739
I3
sI8740
I0
sI8741
I2
sI8742
I0
sI8743
I4
sI8744
I4
sI8745
I0
sI8746
I4
sI8747
I4
sI8748
I0
sI8749
I1
sI8750
I0
sI8751
I4
sI8752
I1
sI8753
I1
sI8754
I0
sI8755
I1
sI8756
I6
sI8757
I6
sI8758
I1
sI8759
I0
sI8760
I1
sI8761
I0
sI8762
I0
sI8763
I1
sI8764
I0
sI8765
I0
sI8766
I1
sI8767
I2
sI8768
I3
sI8769
I0
sI8770
I1
sI8771
I1
sI8772
I0
sI8773
I3
sI8774
I1
sI8775
I5
sI8776
I3
sI8777
I0
sI8778
I4
sI8779
I4
sI8780
I4
sI8781
I4
sI8782
I4
sI8783
I1
sI8784
I0
sI8785
I0
sI8786
I4
sI8787
I4
sI8788
I4
sI8789
I1
sI8790
I4
sI8791
I4
sI8792
I4
sI8793
I5
sI8794
I4
sI8795
I0
sI8796
I3
sI8797
I2
sI8798
I4
sI8799
I0
sI8800
I0
sI8801
I0
sI8802
I0
sI8803
I0
sI8804
I0
sI8805
I2
sI8806
I3
sI8807
I4
sI8808
I4
sI8809
I4
sI8810
I4
sI8811
I2
sI8812
I3
sI8813
I2
sI8814
I3
sI8815
I0
sI8816
I1
sI8817
I0
sI8818
I0
sI8819
I0
sI8820
I0
sI8821
I4
sI8822
I0
sI8823
I3
sI8824
I2
sI8825
I0
sI8826
I1
sI8827
I1
sI8828
I0
sI8829
I0
sI8830
I0
sI8831
I0
sI8832
I1
sI8833
I0
sI8834
I0
sI8835
I0
sI8836
I0
sI8837
I2
sI8838
I3
sI8839
I1
sI8840
I1
sI8841
I0
sI8842
I2
sI8843
I0
sI8844
I0
sI8845
I4
sI8846
I2
sI8847
I4
sI8848
I4
sI8849
I1
sI8850
I1
sI8851
I0
sI8852
I1
sI8853
I2
sI8854
I3
sI8855
I3
sI8856
I1
sI8857
I0
sI8858
I0
sI8859
I0
sI8860
I2
sI8861
I2
sI8862
I0
sI8863
I4
sI8864
I0
sI8865
I0
sI8866
I2
sI8867
I0
sI8868
I0
sI8869
I0
sI8870
I1
sI8871
I1
sI8872
I0
sI8873
I0
sI8874
I0
sI8875
I1
sI8876
I1
sI8877
I1
sI8878
I1
sI8879
I1
sI8880
I0
sI8881
I3
sI8882
I0
sI8883
I0
sI8884
I0
sI8885
I0
sI8886
I0
sI8887
I0
sI8888
I1
sI8889
I1
sI8890
I1
sI8891
I1
sI8892
I0
sI8893
I0
sI8894
I3
sI8895
I3
sI8896
I2
sI8897
I1
sI8898
I1
sI8899
I0
sI8900
I2
sI8901
I4
sI8902
I6
sI8903
I1
sI8904
I1
sI8905
I2
sI8906
I2
sI8907
I0
sI8908
I6
sI8909
I1
sI8910
I1
sI8911
I0
sI8912
I1
sI8913
I1
sI8914
I0
sI8915
I0
sI8916
I1
sI8917
I1
sI8918
I3
sI8919
I2
sI8920
I3
sI8921
I2
sI8922
I0
sI8923
I1
sI8924
I0
sI8925
I0
sI8926
I0
sI8927
I1
sI8928
I2
sI8929
I0
sI8930
I0
sI8931
I1
sI8932
I6
sI8933
I3
sI8934
I3
sI8935
I1
sI8936
I2
sI8937
I1
sI8938
I2
sI8939
I1
sI8940
I3
sI8941
I1
sI8942
I0
sI8943
I2
sI8944
I1
sI8945
I1
sI8946
I2
sI8947
I1
sI8948
I2
sI8949
I0
sI8950
I1
sI8951
I2
sI8952
I1
sI8953
I1
sI8954
I0
sI8955
I0
sI8956
I1
sI8957
I1
sI8958
I3
sI8959
I2
sI8960
I1
sI8961
I3
sI8962
I1
sI8963
I1
sI8964
I1
sI8965
I1
sI8966
I1
sI8967
I1
sI8968
I1
sI8969
I1
sI8970
I0
sI8971
I2
sI8972
I1
sI8973
I0
sI8974
I1
sI8975
I2
sI8976
I1
sI8977
I1
sI8978
I6
sI8979
I0
sI8980
I1
sI8981
I2
sI8982
I3
sI8983
I1
sI8984
I0
sI8985
I1
sI8986
I0
sI8987
I0
sI8988
I0
sI8989
I0
sI8990
I0
sI8991
I0
sI8992
I0
sI8993
I0
sI8994
I0
sI8995
I3
sI8996
I0
sI8997
I3
sI8998
I3
sI8999
I3
sI9000
I2
sI9001
I1
sI9002
I1
sI9003
I2
sI9004
I1
sI9005
I1
sI9006
I0
sI9007
I6
sI9008
I4
sI9009
I0
sI9010
I0
sI9011
I6
sI9012
I0
sI9013
I2
sI9014
I0
sI9015
I1
sI9016
I1
sI9017
I2
sI9018
I0
sI9019
I4
sI9020
I0
sI9021
I0
sI9022
I2
sI9023
I0
sI9024
I0
sI9025
I0
sI9026
I0
sI9027
I1
sI9028
I1
sI9029
I2
sI9030
I0
sI9031
I0
sI9032
I2
sI9033
I2
sI9034
I0
sI9035
I0
sI9036
I4
sI9037
I1
sI9038
I1
sI9039
I0
sI9040
I0
sI9041
I0
sI9042
I6
sI9043
I2
sI9044
I1
sI9045
I3
sI9046
I0
sI9047
I0
sI9048
I0
sI9049
I2
sI9050
I0
sI9051
I1
sI9052
I1
sI9053
I1
sI9054
I1
sI9055
I2
sI9056
I2
sI9057
I1
sI9058
I1
sI9059
I1
sI9060
I6
sI9061
I1
sI9062
I1
sI9063
I3
sI9064
I1
sI9065
I1
sI9066
I3
sI9067
I0
sI9068
I1
sI9069
I0
sI9070
I0
sI9071
I1
sI9072
I1
sI9073
I1
sI9074
I1
sI9075
I4
sI9076
I3
sI9077
I4
sI9078
I1
sI9079
I0
sI9080
I1
sI9081
I0
sI9082
I1
sI9083
I2
sI9084
I1
sI9085
I2
sI9086
I1
sI9087
I2
sI9088
I0
sI9089
I0
sI9090
I3
sI9091
I6
sI9092
I0
sI9093
I0
sI9094
I6
sI9095
I3
sI9096
I0
sI9097
I0
sI9098
I0
sI9099
I0
sI9100
I0
sI9101
I0
sI9102
I0
sI9103
I0
sI9104
I0
sI9105
I0
sI9106
I0
sI9107
I2
sI9108
I0
sI9109
I1
sI9110
I1
sI9111
I0
sI9112
I0
sI9113
I0
sI9114
I0
sI9115
I2
sI9116
I0
sI9117
I0
sI9118
I0
sI9119
I1
sI9120
I3
sI9121
I1
sI9122
I1
sI9123
I1
sI9124
I2
sI9125
I0
sI9126
I1
sI9127
I0
sI9128
I0
sI9129
I0
sI9130
I1
sI9131
I1
sI9132
I1
sI9133
I1
sI9134
I1
sI9135
I0
sI9136
I0
sI9137
I0
sI9138
I0
sI9139
I0
sI9140
I3
sI9141
I1
sI9142
I0
sI9143
I0
sI9144
I0
sI9145
I1
sI9146
I0
sI9147
I0
sI9148
I0
sI9149
I3
sI9150
I0
sI9151
I0
sI9152
I4
sI9153
I0
sI9154
I1
sI9155
I3
sI9156
I4
sI9157
I4
sI9158
I0
sI9159
I0
sI9160
I2
sI9161
I0
sI9162
I0
sI9163
I0
sI9164
I0
sI9165
I4
sI9166
I0
sI9167
I3
sI9168
I4
sI9169
I4
sI9170
I0
sI9171
I4
sI9172
I0
sI9173
I4
sI9174
I4
sI9175
I4
sI9176
I4
sI9177
I0
sI9178
I0
sI9179
I5
sI9180
I3
sI9181
I0
sI9182
I4
sI9183
I4
sI9184
I0
sI9185
I4
sI9186
I0
sI9187
I0
sI9188
I3
sI9189
I3
sI9190
I3
sI9191
I0
sI9192
I3
sI9193
I2
sI9194
I0
sI9195
I2
sI9196
I0
sI9197
I1
sI9198
I0
sI9199
I0
sI9200
I4
sI9201
I0
sI9202
I0
sI9203
I0
sI9204
I0
sI9205
I3
sI9206
I0
sI9207
I0
sI9208
I0
sI9209
I0
sI9210
I0
sI9211
I0
sI9212
I0
sI9213
I0
sI9214
I1
sI9215
I3
sI9216
I0
sI9217
I0
sI9218
I0
sI9219
I1
sI9220
I3
sI9221
I5
sI9222
I3
sI9223
I1
sI9224
I2
sI9225
I0
sI9226
I0
sI9227
I0
sI9228
I2
sI9229
I0
sI9230
I0
sI9231
I0
sI9232
I4
sI9233
I0
sI9234
I4
sI9235
I4
sI9236
I4
sI9237
I0
sI9238
I0
sI9239
I0
sI9240
I0
sI9241
I0
sI9242
I0
sI9243
I0
sI9244
I0
sI9245
I0
sI9246
I0
sI9247
I0
sI9248
I0
sI9249
I0
sI9250
I0
sI9251
I0
sI9252
I0
sI9253
I0
sI9254
I0
sI9255
I2
sI9256
I0
sI9257
I0
sI9258
I0
sI9259
I0
sI9260
I0
sI9261
I0
sI9262
I0
sI9263
I0
sI9264
I0
sI9265
I0
sI9266
I0
sI9267
I3
sI9268
I4
sI9269
I0
sI9270
I4
sI9271
I0
sI9272
I1
sI9273
I3
sI9274
I1
sI9275
I0
sI9276
I0
sI9277
I0
sI9278
I0
sI9279
I0
sI9280
I5
sI9281
I3
sI9282
I4
sI9283
I0
sI9284
I1
sI9285
I4
sI9286
I2
sI9287
I0
sI9288
I3
sI9289
I0
sI9290
I0
sI9291
I4
sI9292
I4
sI9293
I0
sI9294
I4
sI9295
I0
sI9296
I0
sI9297
I0
sI9298
I1
sI9299
I0
sI9300
I4
sI9301
I4
sI9302
I4
sI9303
I3
sI9304
I4
sI9305
I3
sI9306
I4
sI9307
I3
sI9308
I1
sI9309
I4
sI9310
I1
sI9311
I4
sI9312
I4
sI9313
I0
sI9314
I0
sI9315
I0
sI9316
I0
sI9317
I0
sI9318
I0
sI9319
I0
sI9320
I0
sI9321
I1
sI9322
I1
sI9323
I3
sI9324
I0
sI9325
I2
sI9326
I2
sI9327
I0
sI9328
I0
sI9329
I0
sI9330
I0
sI9331
I3
sI9332
I0
sI9333
I0
sI9334
I0
sI9335
I0
sI9336
I0
sI9337
I0
sI9338
I0
sI9339
I1
sI9340
I0
sI9341
I1
sI9342
I0
sI9343
I0
sI9344
I0
sI9345
I0
sI9346
I0
sI9347
I1
sI9348
I0
sI9349
I0
sI9350
I0
sI9351
I0
sI9352
I0
sI9353
I2
sI9354
I1
sI9355
I0
sI9356
I2
sI9357
I2
sI9358
I4
sI9359
I0
sI9360
I4
sI9361
I4
sI9362
I4
sI9363
I0
sI9364
I1
sI9365
I3
sI9366
I0
sI9367
I4
sI9368
I4
sI9369
I4
sI9370
I0
sI9371
I3
sI9372
I3
sI9373
I0
sI9374
I1
sI9375
I4
sI9376
I3
sI9377
I2
sI9378
I0
sI9379
I2
sI9380
I3
sI9381
I3
sI9382
I0
sI9383
I2
sI9384
I2
sI9385
I0
sI9386
I4
sI9387
I0
sI9388
I4
sI9389
I1
sI9390
I2
sI9391
I0
sI9392
I4
sI9393
I0
sI9394
I3
sI9395
I2
sI9396
I0
sI9397
I3
sI9398
I1
sI9399
I3
sI9400
I0
sI9401
I0
sI9402
I0
sI9403
I2
sI9404
I2
sI9405
I3
sI9406
I3
sI9407
I4
sI9408
I0
sI9409
I1
sI9410
I0
sI9411
I0
sI9412
I2
sI9413
I1
sI9414
I1
sI9415
I0
sI9416
I0
sI9417
I1
sI9418
I1
sI9419
I1
sI9420
I4
sI9421
I0
sI9422
I2
sI9423
I3
sI9424
I0
sI9425
I0
sI9426
I0
sI9427
I0
sI9428
I0
sI9429
I0
sI9430
I2
sI9431
I2
sI9432
I3
sI9433
I0
sI9434
I0
sI9435
I0
sI9436
I0
sI9437
I0
sI9438
I0
sI9439
I0
sI9440
I0
sI9441
I0
sI9442
I0
sI9443
I0
sI9444
I3
sI9445
I2
sI9446
I0
sI9447
I0
sI9448
I4
sI9449
I0
sI9450
I0
sI9451
I3
sI9452
I0
sI9453
I3
sI9454
I4
sI9455
I4
sI9456
I3
sI9457
I3
sI9458
I3
sI9459
I0
sI9460
I4
sI9461
I0
sI9462
I0
sI9463
I0
sI9464
I0
sI9465
I0
sI9466
I0
sI9467
I0
sI9468
I0
sI9469
I0
sI9470
I0
sI9471
I0
sI9472
I0
sI9473
I2
sI9474
I0
sI9475
I0
sI9476
I3
sI9477
I1
sI9478
I0
sI9479
I0
sI9480
I0
sI9481
I3
sI9482
I0
sI9483
I0
sI9484
I0
sI9485
I0
sI9486
I0
sI9487
I0
sI9488
I0
sI9489
I2
sI9490
I3
sI9491
I1
sI9492
I2
sI9493
I3
sI9494
I0
sI9495
I2
sI9496
I3
sI9497
I0
sI9498
I3
sI9499
I0
sI9500
I0
sI9501
I2
sI9502
I1
sI9503
I2
sI9504
I1
sI9505
I1
sI9506
I2
sI9507
I1
sI9508
I4
sI9509
I1
sI9510
I1
sI9511
I2
sI9512
I1
sI9513
I1
sI9514
I2
sI9515
I0
sI9516
I0
sI9517
I1
sI9518
I0
sI9519
I0
sI9520
I0
sI9521
I0
sI9522
I0
sI9523
I0
sI9524
I0
sI9525
I0
sI9526
I0
sI9527
I1
sI9528
I0
sI9529
I1
sI9530
I0
sI9531
I1
sI9532
I0
sI9533
I4
sI9534
I0
sI9535
I1
sI9536
I0
sI9537
I2
sI9538
I3
sI9539
I2
sI9540
I0
sI9541
I2
sI9542
I0
sI9543
I0
sI9544
I0
sI9545
I0
sI9546
I0
sI9547
I0
sI9548
I2
sI9549
I4
sI9550
I3
sI9551
I1
sI9552
I4
sI9553
I4
sI9554
I0
sI9555
I0
sI9556
I0
sI9557
I1
sI9558
I1
sI9559
I1
sI9560
I1
sI9561
I1
sI9562
I1
sI9563
I1
sI9564
I1
sI9565
I1
sI9566
I9
sI9567
I0
sI9568
I1
sI9569
I2
sI9570
I1
sI9571
I1
sI9572
I1
sI9573
I4
sI9574
I1
sI9575
I2
sI9576
I1
sI9577
I1
sI9578
I1
sI9579
I1
sI9580
I1
sI9581
I2
sI9582
I3
sI9583
I0
sI9584
I3
sI9585
I1
sI9586
I1
sI9587
I1
sI9588
I1
sI9589
I0
sI9590
I0
sI9591
I1
sI9592
I0
sI9593
I2
sI9594
I1
sI9595
I1
sI9596
I1
sI9597
I1
sI9598
I4
sI9599
I4
sI9600
I4
sI9601
I3
sI9602
I3
sI9603
I1
sI9604
I0
sI9605
I0
sI9606
I0
sI9607
I2
sI9608
I5
sI9609
I5
sI9610
I5
sI9611
I4
sI9612
I1
sI9613
I1
sI9614
I1
sI9615
I1
sI9616
I1
sI9617
I0
sI9618
I4
sI9619
I1
sI9620
I1
sI9621
I2
sI9622
I2
sI9623
I1
sI9624
I1
sI9625
I3
sI9626
I3
sI9627
I1
sI9628
I1
sI9629
I4
sI9630
I1
sI9631
I1
sI9632
I1
sI9633
I1
sI9634
I0
sI9635
I1
sI9636
I2
sI9637
I1
sI9638
I2
sI9639
I4
sI9640
I1
sI9641
I5
sI9642
I1
sI9643
I1
sI9644
I1
sI9645
I1
sI9646
I0
sI9647
I0
sI9648
I1
sI9649
I1
sI9650
I1
sI9651
I1
sI9652
I1
sI9653
I1
sI9654
I0
sI9655
I0
sI9656
I1
sI9657
I1
sI9658
I4
sI9659
I1
sI9660
I0
sI9661
I1
sI9662
I4
sI9663
I0
sI9664
I2
sI9665
I1
sI9666
I1
sI9667
I0
sI9668
I0
sI9669
I2
sI9670
I3
sI9671
I1
sI9672
I1
sI9673
I2
sI9674
I1
sI9675
I1
sI9676
I1
sI9677
I3
sI9678
I1
sI9679
I1
sI9680
I1
sI9681
I1
sI9682
I1
sI9683
I1
sI9684
I0
sI9685
I1
sI9686
I0
sI9687
I2
sI9688
I1
sI9689
I4
sI9690
I1
sI9691
I2
sI9692
I1
sI9693
I0
sI9694
I4
sI9695
I2
sI9696
I0
sI9697
I0
sI9698
I3
sI9699
I2
sI9700
I2
sI9701
I0
sI9702
I2
sI9703
I1
sI9704
I0
sI9705
I1
sI9706
I0
sI9707
I3
sI9708
I0
sI9709
I0
sI9710
I1
sI9711
I4
sI9712
I0
sI9713
I4
sI9714
I0
sI9715
I4
sI9716
I6
sI9717
I1
sI9718
I0
sI9719
I1
sI9720
I0
sI9721
I1
sI9722
I1
sI9723
I1
sI9724
I0
sI9725
I1
sI9726
I0
sI9727
I0
sI9728
I2
sI9729
I2
sI9730
I2
sI9731
I0
sI9732
I0
sI9733
I5
sI9734
I3
sI9735
I0
sI9736
I1
sI9737
I0
sI9738
I0
sI9739
I4
sI9740
I4
sI9741
I1
sI9742
I1
sI9743
I3
sI9744
I3
sI9745
I0
sI9746
I3
sI9747
I4
sI9748
I0
sI9749
I0
sI9750
I3
sI9751
I0
sI9752
I0
sI9753
I4
sI9754
I0
sI9755
I0
sI9756
I9
sI9757
I0
sI9758
I4
sI9759
I0
sI9760
I4
sI9761
I4
sI9762
I5
sI9763
I3
sI9764
I0
sI9765
I0
sI9766
I1
sI9767
I3
sI9768
I1
sI9769
I1
sI9770
I2
sI9771
I0
sI9772
I4
sI9773
I1
sI9774
I1
sI9775
I2
sI9776
I2
sI9777
I0
sI9778
I1
sI9779
I3
sI9780
I0
sI9781
I0
sI9782
I0
sI9783
I3
sI9784
I4
sI9785
I3
sI9786
I1
sI9787
I0
sI9788
I2
sI9789
I1
sI9790
I0
sI9791
I0
sI9792
I5
sI9793
I2
sI9794
I0
sI9795
I3
sI9796
I0
sI9797
I3
sI9798
I0
sI9799
I3
sI9800
I3
sI9801
I0
sI9802
I1
sI9803
I0
sI9804
I1
sI9805
I3
sI9806
I3
sI9807
I1
sI9808
I0
sI9809
I3
sI9810
I0
sI9811
I2
sI9812
I1
sI9813
I3
sI9814
I0
sI9815
I0
sI9816
I0
sI9817
I4
sI9818
I4
sI9819
I4
sI9820
I4
sI9821
I0
sI9822
I2
sI9823
I0
sI9824
I0
sI9825
I3
sI9826
I3
sI9827
I2
sI9828
I4
sI9829
I1
sI9830
I2
sI9831
I0
sI9832
I5
sI9833
I6
sI9834
I0
sI9835
I0
sI9836
I0
sI9837
I0
sI9838
I1
sI9839
I1
sI9840
I0
sI9841
I0
sI9842
I0
sI9843
I0
sI9844
I0
sI9845
I0
sI9846
I0
sI9847
I0
sI9848
I0
sI9849
I1
sI9850
I0
sI9851
I0
sI9852
I0
sI9853
I0
sI9854
I0
sI9855
I0
sI9856
I3
sI9857
I1
sI9858
I1
sI9859
I0
sI9860
I0
sI9861
I0
sI9862
I0
sI9863
I0
sI9864
I1
sI9865
I0
sI9866
I1
sI9867
I0
sI9868
I1
sI9869
I1
sI9870
I2
sI9871
I1
sI9872
I0
sI9873
I1
sI9874
I0
sI9875
I1
sI9876
I3
sI9877
I0
sI9878
I1
sI9879
I1
sI9880
I0
sI9881
I0
sI9882
I0
sI9883
I4
sI9884
I4
sI9885
I2
sI9886
I0
sI9887
I6
sI9888
I0
sI9889
I2
sI9890
I0
sI9891
I0
sI9892
I0
sI9893
I1
sI9894
I1
sI9895
I0
sI9896
I0
sI9897
I0
sI9898
I0
sI9899
I0
sI9900
I0
sI9901
I0
sI9902
I1
sI9903
I1
sI9904
I1
sI9905
I6
sI9906
I1
sI9907
I0
sI9908
I0
sI9909
I0
sI9910
I1
sI9911
I0
sI9912
I0
sI9913
I0
sI9914
I0
sI9915
I1
sI9916
I0
sI9917
I1
sI9918
I1
sI9919
I0
sI9920
I3
sI9921
I4
sI9922
I1
sI9923
I1
sI9924
I1
sI9925
I1
sI9926
I0
sI9927
I1
sI9928
I0
sI9929
I1
sI9930
I1
sI9931
I1
sI9932
I1
sI9933
I1
sI9934
I4
sI9935
I2
sI9936
I0
sI9937
I0
sI9938
I0
sI9939
I0
sI9940
I0
sI9941
I0
sI9942
I0
sI9943
I0
sI9944
I0
sI9945
I1
sI9946
I0
sI9947
I0
sI9948
I0
sI9949
I1
sI9950
I1
sI9951
I1
sI9952
I0
sI9953
I2
sI9954
I3
sI9955
I1
sI9956
I0
sI9957
I1
sI9958
I1
sI9959
I0
sI9960
I3
sI9961
I1
sI9962
I3
sI9963
I1
sI9964
I2
sI9965
I3
sI9966
I2
sI9967
I1
sI9968
I1
sI9969
I1
sI9970
I2
sI9971
I1
sI9972
I1
sI9973
I1
sI9974
I1
sI9975
I1
sI9976
I2
sI9977
I1
sI9978
I3
sI9979
I1
sI9980
I1
sI9981
I3
sI9982
I3
sI9983
I1
sI9984
I1
sI9985
I1
sI9986
I1
sI9987
I1
sI9988
I1
sI9989
I1
sI9990
I1
sI9991
I1
sI9992
I0
sI9993
I1
sI9994
I1
sI9995
I1
sI9996
I1
sI9997
I1
sI9998
I2
sI9999
I1
sI10000
I1
sI10001
I1
sI10002
I1
sI10003
I1
sI10004
I3
sI10005
I5
sI10006
I1
sI10007
I4
sI10008
I3
sI10009
I3
sI10010
I1
sI10011
I2
sI10012
I0
sI10013
I2
sI10014
I3
sI10015
I1
sI10016
I1
sI10017
I2
sI10018
I1
sI10019
I3
sI10020
I0
sI10021
I6
sI10022
I1
sI10023
I0
sI10024
I1
sI10025
I0
sI10026
I0
sI10027
I0
sI10028
I0
sI10029
I0
sI10030
I0
sI10031
I1
sI10032
I7
sI10033
I1
sI10034
I2
sI10035
I2
sI10036
I1
sI10037
I2
sI10038
I1
sI10039
I3
sI10040
I3
sI10041
I6
sI10042
I1
sI10043
I1
sI10044
I0
sI10045
I0
sI10046
I0
sI10047
I2
sI10048
I0
sI10049
I6
sI10050
I5
sI10051
I0
sI10052
I6
sI10053
I0
sI10054
I3
sI10055
I0
sI10056
I0
sI10057
I0
sI10058
I1
sI10059
I1
sI10060
I1
sI10061
I0
sI10062
I2
sI10063
I0
sI10064
I4
sI10065
I1
sI10066
I1
sI10067
I0
sI10068
I0
sI10069
I3
sI10070
I1
sI10071
I2
sI10072
I1
sI10073
I0
sI10074
I0
sI10075
I1
sI10076
I2
sI10077
I1
sI10078
I0
sI10079
I1
sI10080
I3
sI10081
I2
sI10082
I4
sI10083
I3
sI10084
I0
sI10085
I2
sI10086
I1
sI10087
I0
sI10088
I0
sI10089
I0
sI10090
I2
sI10091
I1
sI10092
I2
sI10093
I1
sI10094
I2
sI10095
I4
sI10096
I2
sI10097
I2
sI10098
I0
sI10099
I3
sI10100
I1
sI10101
I2
sI10102
I0
sI10103
I2
sI10104
I1
sI10105
I3
sI10106
I5
sI10107
I1
sI10108
I1
sI10109
I0
sI10110
I1
sI10111
I1
sI10112
I0
sI10113
I0
sI10114
I2
sI10115
I1
sI10116
I5
sI10117
I3
sI10118
I1
sI10119
I6
sI10120
I1
sI10121
I1
sI10122
I0
sI10123
I2
sI10124
I0
sI10125
I1
sI10126
I1
sI10127
I0
sI10128
I1
sI10129
I4
sI10130
I0
sI10131
I1
sI10132
I0
sI10133
I1
sI10134
I0
sI10135
I1
sI10136
I0
sI10137
I0
sI10138
I0
sI10139
I0
sI10140
I0
sI10141
I0
sI10142
I1
sI10143
I0
sI10144
I2
sI10145
I1
sI10146
I0
sI10147
I0
sI10148
I0
sI10149
I0
sI10150
I0
sI10151
I0
sI10152
I0
sI10153
I0
sI10154
I2
sI10155
I3
sI10156
I1
sI10157
I0
sI10158
I0
sI10159
I0
sI10160
I0
sI10161
I1
sI10162
I1
sI10163
I0
sI10164
I0
sI10165
I0
sI10166
I1
sI10167
I1
sI10168
I1
sI10169
I0
sI10170
I0
sI10171
I0
sI10172
I4
sI10173
I1
sI10174
I4
sI10175
I0
sI10176
I1
sI10177
I1
sI10178
I0
sI10179
I4
sI10180
I0
sI10181
I3
sI10182
I0
sI10183
I1
sI10184
I1
sI10185
I3
sI10186
I2
sI10187
I0
sI10188
I2
sI10189
I0
sI10190
I3
sI10191
I2
sI10192
I3
sI10193
I0
sI10194
I0
sI10195
I1
sI10196
I0
sI10197
I0
sI10198
I1
sI10199
I0
sI10200
I1
sI10201
I0
sI10202
I1
sI10203
I0
sI10204
I1
sI10205
I0
sI10206
I3
sI10207
I5
sI10208
I0
sI10209
I0
sI10210
I0
sI10211
I1
sI10212
I2
sI10213
I1
sI10214
I1
sI10215
I1
sI10216
I1
sI10217
I2
sI10218
I2
sI10219
I0
sI10220
I1
sI10221
I0
sI10222
I0
sI10223
I0
sI10224
I4
sI10225
I4
sI10226
I4
sI10227
I0
sI10228
I0
sI10229
I4
sI10230
I4
sI10231
I4
sI10232
I4
sI10233
I4
sI10234
I4
sI10235
I0
sI10236
I2
sI10237
I0
sI10238
I4
sI10239
I3
sI10240
I0
sI10241
I0
sI10242
I0
sI10243
I4
sI10244
I4
sI10245
I3
sI10246
I0
sI10247
I0
sI10248
I0
sI10249
I0
sI10250
I5
sI10251
I1
sI10252
I2
sI10253
I0
sI10254
I4
sI10255
I3
sI10256
I0
sI10257
I0
sI10258
I0
sI10259
I3
sI10260
I0
sI10261
I0
sI10262
I1
sI10263
I3
sI10264
I1
sI10265
I0
sI10266
I0
sI10267
I0
sI10268
I3
sI10269
I3
sI10270
I2
sI10271
I1
sI10272
I4
sI10273
I4
sI10274
I0
sI10275
I0
sI10276
I1
sI10277
I0
sI10278
I0
sI10279
I1
sI10280
I0
sI10281
I0
sI10282
I1
sI10283
I0
sI10284
I0
sI10285
I0
sI10286
I3
sI10287
I0
sI10288
I1
sI10289
I0
sI10290
I0
sI10291
I0
sI10292
I0
sI10293
I2
sI10294
I4
sI10295
I0
sI10296
I4
sI10297
I4
sI10298
I4
sI10299
I4
sI10300
I4
sI10301
I4
sI10302
I0
sI10303
I0
sI10304
I0
sI10305
I0
sI10306
I0
sI10307
I0
sI10308
I0
sI10309
I0
sI10310
I0
sI10311
I0
sI10312
I0
sI10313
I0
sI10314
I0
sI10315
I0
sI10316
I0
sI10317
I0
sI10318
I0
sI10319
I0
sI10320
I0
sI10321
I0
sI10322
I0
sI10323
I0
sI10324
I0
sI10325
I0
sI10326
I0
sI10327
I0
sI10328
I0
sI10329
I0
sI10330
I1
sI10331
I0
sI10332
I4
sI10333
I0
sI10334
I0
sI10335
I0
sI10336
I0
sI10337
I0
sI10338
I0
sI10339
I0
sI10340
I0
sI10341
I0
sI10342
I0
sI10343
I3
sI10344
I0
sI10345
I0
sI10346
I0
sI10347
I0
sI10348
I0
sI10349
I0
sI10350
I2
sI10351
I0
sI10352
I3
sI10353
I0
sI10354
I3
sI10355
I0
sI10356
I1
sI10357
I2
sI10358
I1
sI10359
I0
sI10360
I0
sI10361
I1
sI10362
I0
sI10363
I5
sI10364
I4
sI10365
I4
sI10366
I3
sI10367
I1
sI10368
I1
sI10369
I1
sI10370
I0
sI10371
I1
sI10372
I5
sI10373
I1
sI10374
I2
sI10375
I0
sI10376
I0
sI10377
I1
sI10378
I0
sI10379
I1
sI10380
I0
sI10381
I4
sI10382
I4
sI10383
I0
sI10384
I1
sI10385
I0
sI10386
I5
sI10387
I0
sI10388
I0
sI10389
I2
sI10390
I0
sI10391
I0
sI10392
I0
sI10393
I4
sI10394
I4
sI10395
I0
sI10396
I4
sI10397
I4
sI10398
I1
sI10399
I4
sI10400
I0
sI10401
I4
sI10402
I5
sI10403
I4
sI10404
I4
sI10405
I0
sI10406
I0
sI10407
I0
sI10408
I0
sI10409
I3
sI10410
I3
sI10411
I0
sI10412
I4
sI10413
I4
sI10414
I0
sI10415
I0
sI10416
I4
sI10417
I2
sI10418
I4
sI10419
I4
sI10420
I4
sI10421
I1
sI10422
I1
sI10423
I4
sI10424
I4
sI10425
I4
sI10426
I3
sI10427
I4
sI10428
I4
sI10429
I4
sI10430
I4
sI10431
I0
sI10432
I0
sI10433
I0
sI10434
I2
sI10435
I0
sI10436
I0
sI10437
I2
sI10438
I3
sI10439
I0
sI10440
I0
sI10441
I0
sI10442
I2
sI10443
I0
sI10444
I2
sI10445
I1
sI10446
I3
sI10447
I4
sI10448
I0
sI10449
I0
sI10450
I0
sI10451
I4
sI10452
I0
sI10453
I0
sI10454
I0
sI10455
I0
sI10456
I3
sI10457
I2
sI10458
I3
sI10459
I0
sI10460
I0
sI10461
I0
sI10462
I0
sI10463
I3
sI10464
I1
sI10465
I3
sI10466
I2
sI10467
I2
sI10468
I3
sI10469
I0
sI10470
I1
sI10471
I0
sI10472
I0
sI10473
I0
sI10474
I0
sI10475
I0
sI10476
I0
sI10477
I2
sI10478
I0
sI10479
I0
sI10480
I1
sI10481
I4
sI10482
I1
sI10483
I0
sI10484
I1
sI10485
I4
sI10486
I1
sI10487
I4
sI10488
I0
sI10489
I4
sI10490
I4
sI10491
I0
sI10492
I4
sI10493
I1
sI10494
I1
sI10495
I0
sI10496
I0
sI10497
I2
sI10498
I3
sI10499
I1
sI10500
I1
sI10501
I1
sI10502
I3
sI10503
I3
sI10504
I3
sI10505
I3
sI10506
I0
sI10507
I0
sI10508
I2
sI10509
I0
sI10510
I1
sI10511
I0
sI10512
I4
sI10513
I0
sI10514
I3
sI10515
I3
sI10516
I0
sI10517
I0
sI10518
I0
sI10519
I4
sI10520
I4
sI10521
I4
sI10522
I0
sI10523
I2
sI10524
I0
sI10525
I0
sI10526
I1
sI10527
I3
sI10528
I0
sI10529
I0
sI10530
I4
sI10531
I0
sI10532
I0
sI10533
I0
sI10534
I0
sI10535
I1
sI10536
I0
sI10537
I1
sI10538
I1
sI10539
I0
sI10540
I5
sI10541
I5
sI10542
I2
sI10543
I0
sI10544
I5
sI10545
I1
sI10546
I0
sI10547
I0
sI10548
I1
sI10549
I1
sI10550
I1
sI10551
I3
sI10552
I0
sI10553
I1
sI10554
I1
sI10555
I1
sI10556
I2
sI10557
I1
sI10558
I0
sI10559
I0
sI10560
I0
sI10561
I3
sI10562
I0
sI10563
I0
sI10564
I2
sI10565
I2
sI10566
I3
sI10567
I0
sI10568
I2
sI10569
I0
sI10570
I2
sI10571
I0
sI10572
I2
sI10573
I0
sI10574
I0
sI10575
I0
sI10576
I0
sI10577
I0
sI10578
I4
sI10579
I0
sI10580
I6
sI10581
I4
sI10582
I0
sI10583
I4
sI10584
I5
sI10585
I4
sI10586
I0
sI10587
I0
sI10588
I4
sI10589
I0
sI10590
I4
sI10591
I0
sI10592
I0
sI10593
I0
sI10594
I0
sI10595
I0
sI10596
I0
sI10597
I4
sI10598
I0
sI10599
I0
sI10600
I0
sI10601
I3
sI10602
I3
sI10603
I2
sI10604
I3
sI10605
I3
sI10606
I3
sI10607
I4
sI10608
I2
sI10609
I3
sI10610
I2
sI10611
I4
sI10612
I3
sI10613
I0
sI10614
I3
sI10615
I3
sI10616
I3
sI10617
I3
sI10618
I3
sI10619
I1
sI10620
I0
sI10621
I0
sI10622
I0
sI10623
I3
sI10624
I0
sI10625
I0
sI10626
I1
sI10627
I1
sI10628
I2
sI10629
I0
sI10630
I0
sI10631
I0
sI10632
I6
sI10633
I3
sI10634
I0
sI10635
I0
sI10636
I5
sI10637
I0
sI10638
I1
sI10639
I0
sI10640
I1
sI10641
I1
sI10642
I1
sI10643
I0
sI10644
I1
sI10645
I0
sI10646
I3
sI10647
I0
sI10648
I1
sI10649
I1
sI10650
I1
sI10651
I3
sI10652
I0
sI10653
I0
sI10654
I0
sI10655
I0
sI10656
I3
sI10657
I3
sI10658
I0
sI10659
I1
sI10660
I0
sI10661
I3
sI10662
I2
sI10663
I1
sI10664
I1
sI10665
I3
sI10666
I0
sI10667
I2
sI10668
I1
sI10669
I1
sI10670
I1
sI10671
I2
sI10672
I3
sI10673
I3
sI10674
I0
sI10675
I0
sI10676
I0
sI10677
I0
sI10678
I0
sI10679
I0
sI10680
I0
sI10681
I1
sI10682
I0
sI10683
I0
sI10684
I0
sI10685
I0
sI10686
I1
sI10687
I0
sI10688
I1
sI10689
I1
sI10690
I1
sI10691
I3
sI10692
I3
sI10693
I3
sI10694
I2
sI10695
I1
sI10696
I0
sI10697
I0
sI10698
I0
sI10699
I0
sI10700
I2
sI10701
I2
sI10702
I1
sI10703
I4
sI10704
I0
sI10705
I2
sI10706
I0
sI10707
I0
sI10708
I0
sI10709
I5
sI10710
I4
sI10711
I3
sI10712
I5
sI10713
I4
sI10714
I0
sI10715
I3
sI10716
I0
sI10717
I1
sI10718
I5
sI10719
I0
sI10720
I2
sI10721
I0
sI10722
I2
sI10723
I2
sI10724
I1
sI10725
I0
sI10726
I0
sI10727
I0
sI10728
I4
sI10729
I0
sI10730
I1
sI10731
I0
sI10732
I0
sI10733
I1
sI10734
I1
sI10735
I0
sI10736
I2
sI10737
I1
sI10738
I1
sI10739
I2
sI10740
I1
sI10741
I1
sI10742
I9
sI10743
I4
sI10744
I1
sI10745
I1
sI10746
I2
sI10747
I2
sI10748
I1
sI10749
I1
sI10750
I1
sI10751
I1
sI10752
I1
sI10753
I1
sI10754
I1
sI10755
I2
sI10756
I3
sI10757
I3
sI10758
I0
sI10759
I1
sI10760
I1
sI10761
I1
sI10762
I1
sI10763
I1
sI10764
I1
sI10765
I0
sI10766
I1
sI10767
I1
sI10768
I4
sI10769
I0
sI10770
I0
sI10771
I1
sI10772
I1
sI10773
I0
sI10774
I2
sI10775
I2
sI10776
I1
sI10777
I1
sI10778
I1
sI10779
I1
sI10780
I1
sI10781
I0
sI10782
I0
sI10783
I5
sI10784
I1
sI10785
I1
sI10786
I1
sI10787
I2
sI10788
I0
sI10789
I0
sI10790
I1
sI10791
I1
sI10792
I1
sI10793
I1
sI10794
I1
sI10795
I1
sI10796
I0
sI10797
I0
sI10798
I1
sI10799
I4
sI10800
I1
sI10801
I1
sI10802
I1
sI10803
I1
sI10804
I2
sI10805
I2
sI10806
I3
sI10807
I2
sI10808
I3
sI10809
I4
sI10810
I3
sI10811
I1
sI10812
I4
sI10813
I1
sI10814
I1
sI10815
I0
sI10816
I1
sI10817
I1
sI10818
I1
sI10819
I1
sI10820
I1
sI10821
I1
sI10822
I1
sI10823
I1
sI10824
I1
sI10825
I0
sI10826
I1
sI10827
I1
sI10828
I0
sI10829
I4
sI10830
I2
sI10831
I5
sI10832
I0
sI10833
I1
sI10834
I1
sI10835
I0
sI10836
I1
sI10837
I0
sI10838
I1
sI10839
I1
sI10840
I1
sI10841
I1
sI10842
I1
sI10843
I1
sI10844
I1
sI10845
I1
sI10846
I0
sI10847
I4
sI10848
I4
sI10849
I0
sI10850
I1
sI10851
I0
sI10852
I4
sI10853
I1
sI10854
I1
sI10855
I1
sI10856
I1
sI10857
I1
sI10858
I0
sI10859
I1
sI10860
I5
sI10861
I0
sI10862
I1
sI10863
I4
sI10864
I0
sI10865
I3
sI10866
I3
sI10867
I1
sI10868
I0
sI10869
I0
sI10870
I2
sI10871
I1
sI10872
I4
sI10873
I0
sI10874
I0
sI10875
I0
sI10876
I5
sI10877
I4
sI10878
I0
sI10879
I1
sI10880
I1
sI10881
I0
sI10882
I4
sI10883
I4
sI10884
I4
sI10885
I0
sI10886
I4
sI10887
I4
sI10888
I0
sI10889
I1
sI10890
I0
sI10891
I4
sI10892
I5
sI10893
I2
sI10894
I5
sI10895
I0
sI10896
I0
sI10897
I4
sI10898
I5
sI10899
I4
sI10900
I4
sI10901
I2
sI10902
I4
sI10903
I2
sI10904
I1
sI10905
I4
sI10906
I3
sI10907
I0
sI10908
I7
sI10909
I4
sI10910
I0
sI10911
I2
sI10912
I0
sI10913
I3
sI10914
I3
sI10915
I0
sI10916
I3
sI10917
I3
sI10918
I3
sI10919
I0
sI10920
I0
sI10921
I0
sI10922
I0
sI10923
I4
sI10924
I2
sI10925
I3
sI10926
I2
sI10927
I2
sI10928
I2
sI10929
I2
sI10930
I2
sI10931
I2
sI10932
I2
sI10933
I0
sI10934
I0
sI10935
I1
sI10936
I0
sI10937
I0
sI10938
I0
sI10939
I1
sI10940
I1
sI10941
I1
sI10942
I0
sI10943
I3
sI10944
I0
sI10945
I4
sI10946
I2
sI10947
I2
sI10948
I0
sI10949
I0
sI10950
I0
sI10951
I0
sI10952
I0
sI10953
I0
sI10954
I0
sI10955
I4
sI10956
I0
sI10957
I1
sI10958
I1
sI10959
I1
sI10960
I2
sI10961
I0
sI10962
I0
sI10963
I0
sI10964
I2
sI10965
I0
sI10966
I0
sI10967
I3
sI10968
I1
sI10969
I1
sI10970
I1
sI10971
I0
sI10972
I1
sI10973
I6
sI10974
I3
sI10975
I2
sI10976
I0
sI10977
I0
sI10978
I0
sI10979
I1
sI10980
I0
sI10981
I3
sI10982
I0
sI10983
I0
sI10984
I1
sI10985
I1
sI10986
I0
sI10987
I1
sI10988
I0
sI10989
I1
sI10990
I0
sI10991
I0
sI10992
I1
sI10993
I0
sI10994
I6
sI10995
I0
sI10996
I0
sI10997
I1
sI10998
I1
sI10999
I2
sI11000
I1
sI11001
I1
sI11002
I4
sI11003
I4
sI11004
I6
sI11005
I1
sI11006
I1
sI11007
I2
sI11008
I1
sI11009
I1
sI11010
I3
sI11011
I1
sI11012
I0
sI11013
I3
sI11014
I0
sI11015
I1
sI11016
I1
sI11017
I1
sI11018
I1
sI11019
I2
sI11020
I2
sI11021
I3
sI11022
I0
sI11023
I2
sI11024
I2
sI11025
I1
sI11026
I1
sI11027
I1
sI11028
I1
sI11029
I3
sI11030
I1
sI11031
I1
sI11032
I1
sI11033
I3
sI11034
I3
sI11035
I1
sI11036
I1
sI11037
I3
sI11038
I2
sI11039
I2
sI11040
I1
sI11041
I1
sI11042
I1
sI11043
I1
sI11044
I1
sI11045
I1
sI11046
I1
sI11047
I0
sI11048
I1
sI11049
I3
sI11050
I3
sI11051
I3
sI11052
I1
sI11053
I2
sI11054
I1
sI11055
I1
sI11056
I1
sI11057
I1
sI11058
I1
sI11059
I1
sI11060
I1
sI11061
I1
sI11062
I1
sI11063
I0
sI11064
I1
sI11065
I1
sI11066
I1
sI11067
I3
sI11068
I3
sI11069
I0
sI11070
I2
sI11071
I1
sI11072
I1
sI11073
I1
sI11074
I1
sI11075
I1
sI11076
I2
sI11077
I1
sI11078
I1
sI11079
I3
sI11080
I0
sI11081
I1
sI11082
I1
sI11083
I1
sI11084
I1
sI11085
I3
sI11086
I1
sI11087
I1
sI11088
I1
sI11089
I1
sI11090
I1
sI11091
I3
sI11092
I1
sI11093
I3
sI11094
I1
sI11095
I0
sI11096
I1
sI11097
I1
sI11098
I1
sI11099
I0
sI11100
I2
sI11101
I3
sI11102
I1
sI11103
I0
sI11104
I0
sI11105
I0
sI11106
I0
sI11107
I0
sI11108
I0
sI11109
I1
sI11110
I1
sI11111
I3
sI11112
I5
sI11113
I0
sI11114
I1
sI11115
I1
sI11116
I3
sI11117
I0
sI11118
I3
sI11119
I1
sI11120
I1
sI11121
I1
sI11122
I1
sI11123
I1
sI11124
I2
sI11125
I4
sI11126
I0
sI11127
I1
sI11128
I0
sI11129
I2
sI11130
I2
sI11131
I0
sI11132
I5
sI11133
I3
sI11134
I0
sI11135
I2
sI11136
I0
sI11137
I0
sI11138
I6
sI11139
I2
sI11140
I0
sI11141
I3
sI11142
I0
sI11143
I1
sI11144
I1
sI11145
I1
sI11146
I1
sI11147
I0
sI11148
I0
sI11149
I0
sI11150
I1
sI11151
I3
sI11152
I4
sI11153
I2
sI11154
I1
sI11155
I1
sI11156
I1
sI11157
I1
sI11158
I3
sI11159
I2
sI11160
I3
sI11161
I2
sI11162
I1
sI11163
I2
sI11164
I4
sI11165
I6
sI11166
I1
sI11167
I0
sI11168
I2
sI11169
I0
sI11170
I1
sI11171
I2
sI11172
I4
sI11173
I0
sI11174
I1
sI11175
I3
sI11176
I1
sI11177
I1
sI11178
I3
sI11179
I1
sI11180
I3
sI11181
I1
sI11182
I1
sI11183
I1
sI11184
I0
sI11185
I1
sI11186
I1
sI11187
I2
sI11188
I1
sI11189
I1
sI11190
I2
sI11191
I1
sI11192
I2
sI11193
I3
sI11194
I1
sI11195
I1
sI11196
I2
sI11197
I6
sI11198
I0
sI11199
I0
sI11200
I2
sI11201
I0
sI11202
I2
sI11203
I1
sI11204
I3
sI11205
I3
sI11206
I1
sI11207
I4
sI11208
I0
sI11209
I1
sI11210
I0
sI11211
I0
sI11212
I1
sI11213
I2
sI11214
I1
sI11215
I1
sI11216
I0
sI11217
I0
sI11218
I1
sI11219
I0
sI11220
I0
sI11221
I0
sI11222
I0
sI11223
I1
sI11224
I0
sI11225
I0
sI11226
I6
sI11227
I0
sI11228
I0
sI11229
I0
sI11230
I1
sI11231
I0
sI11232
I0
sI11233
I2
sI11234
I2
sI11235
I2
sI11236
I2
sI11237
I2
sI11238
I2
sI11239
I1
sI11240
I1
sI11241
I1
sI11242
I1
sI11243
I1
sI11244
I1
sI11245
I1
sI11246
I1
sI11247
I0
sI11248
I1
sI11249
I1
sI11250
I0
sI11251
I3
sI11252
I0
sI11253
I0
sI11254
I0
sI11255
I1
sI11256
I3
sI11257
I2
sI11258
I0
sI11259
I1
sI11260
I1
sI11261
I2
sI11262
I0
sI11263
I0
sI11264
I1
sI11265
I0
sI11266
I0
sI11267
I2
sI11268
I3
sI11269
I1
sI11270
I0
sI11271
I3
sI11272
I0
sI11273
I1
sI11274
I1
sI11275
I1
sI11276
I0
sI11277
I0
sI11278
I2
sI11279
I0
sI11280
I2
sI11281
I0
sI11282
I2
sI11283
I3
sI11284
I0
sI11285
I1
sI11286
I1
sI11287
I0
sI11288
I0
sI11289
I1
sI11290
I1
sI11291
I1
sI11292
I2
sI11293
I1
sI11294
I0
sI11295
I0
sI11296
I1
sI11297
I0
sI11298
I0
sI11299
I0
sI11300
I0
sI11301
I1
sI11302
I2
sI11303
I1
sI11304
I0
sI11305
I0
sI11306
I0
sI11307
I0
sI11308
I0
sI11309
I2
sI11310
I0
sI11311
I0
sI11312
I0
sI11313
I0
sI11314
I0
sI11315
I0
sI11316
I0
sI11317
I0
sI11318
I1
sI11319
I0
sI11320
I0
sI11321
I4
sI11322
I1
sI11323
I4
sI11324
I2
sI11325
I0
sI11326
I2
sI11327
I1
sI11328
I2
sI11329
I4
sI11330
I1
sI11331
I0
sI11332
I4
sI11333
I4
sI11334
I0
sI11335
I0
sI11336
I0
sI11337
I0
sI11338
I0
sI11339
I0
sI11340
I4
sI11341
I0
sI11342
I3
sI11343
I0
sI11344
I0
sI11345
I3
sI11346
I0
sI11347
I0
sI11348
I0
sI11349
I0
sI11350
I0
sI11351
I5
sI11352
I4
sI11353
I0
sI11354
I0
sI11355
I0
sI11356
I4
sI11357
I0
sI11358
I0
sI11359
I0
sI11360
I0
sI11361
I3
sI11362
I0
sI11363
I0
sI11364
I0
sI11365
I0
sI11366
I3
sI11367
I1
sI11368
I1
sI11369
I1
sI11370
I2
sI11371
I3
sI11372
I2
sI11373
I3
sI11374
I1
sI11375
I1
sI11376
I1
sI11377
I0
sI11378
I3
sI11379
I2
sI11380
I0
sI11381
I4
sI11382
I4
sI11383
I4
sI11384
I4
sI11385
I0
sI11386
I0
sI11387
I0
sI11388
I0
sI11389
I0
sI11390
I0
sI11391
I0
sI11392
I0
sI11393
I0
sI11394
I0
sI11395
I0
sI11396
I0
sI11397
I0
sI11398
I0
sI11399
I1
sI11400
I0
sI11401
I0
sI11402
I0
sI11403
I0
sI11404
I4
sI11405
I0
sI11406
I0
sI11407
I0
sI11408
I0
sI11409
I4
sI11410
I4
sI11411
I0
sI11412
I4
sI11413
I0
sI11414
I0
sI11415
I0
sI11416
I4
sI11417
I0
sI11418
I4
sI11419
I3
sI11420
I0
sI11421
I1
sI11422
I1
sI11423
I1
sI11424
I0
sI11425
I0
sI11426
I1
sI11427
I1
sI11428
I1
sI11429
I2
sI11430
I1
sI11431
I3
sI11432
I0
sI11433
I0
sI11434
I0
sI11435
I0
sI11436
I1
sI11437
I4
sI11438
I1
sI11439
I2
sI11440
I0
sI11441
I0
sI11442
I1
sI11443
I1
sI11444
I4
sI11445
I0
sI11446
I2
sI11447
I0
sI11448
I2
sI11449
I2
sI11450
I4
sI11451
I0
sI11452
I0
sI11453
I4
sI11454
I0
sI11455
I0
sI11456
I0
sI11457
I0
sI11458
I0
sI11459
I4
sI11460
I4
sI11461
I4
sI11462
I4
sI11463
I4
sI11464
I4
sI11465
I0
sI11466
I0
sI11467
I4
sI11468
I4
sI11469
I3
sI11470
I1
sI11471
I2
sI11472
I4
sI11473
I4
sI11474
I2
sI11475
I3
sI11476
I3
sI11477
I4
sI11478
I0
sI11479
I3
sI11480
I4
sI11481
I3
sI11482
I4
sI11483
I4
sI11484
I0
sI11485
I2
sI11486
I4
sI11487
I1
sI11488
I0
sI11489
I0
sI11490
I3
sI11491
I3
sI11492
I0
sI11493
I0
sI11494
I0
sI11495
I2
sI11496
I2
sI11497
I2
sI11498
I1
sI11499
I0
sI11500
I1
sI11501
I0
sI11502
I0
sI11503
I0
sI11504
I0
sI11505
I3
sI11506
I0
sI11507
I0
sI11508
I0
sI11509
I0
sI11510
I2
sI11511
I0
sI11512
I0
sI11513
I3
sI11514
I2
sI11515
I0
sI11516
I2
sI11517
I5
sI11518
I2
sI11519
I0
sI11520
I0
sI11521
I3
sI11522
I0
sI11523
I2
sI11524
I1
sI11525
I2
sI11526
I3
sI11527
I0
sI11528
I0
sI11529
I0
sI11530
I3
sI11531
I0
sI11532
I1
sI11533
I0
sI11534
I0
sI11535
I2
sI11536
I0
sI11537
I4
sI11538
I1
sI11539
I4
sI11540
I4
sI11541
I4
sI11542
I4
sI11543
I0
sI11544
I0
sI11545
I2
sI11546
I0
sI11547
I0
sI11548
I0
sI11549
I0
sI11550
I4
sI11551
I0
sI11552
I4
sI11553
I0
sI11554
I3
sI11555
I1
sI11556
I3
sI11557
I2
sI11558
I0
sI11559
I1
sI11560
I2
sI11561
I3
sI11562
I3
sI11563
I1
sI11564
I3
sI11565
I2
sI11566
I1
sI11567
I2
sI11568
I3
sI11569
I2
sI11570
I3
sI11571
I2
sI11572
I2
sI11573
I2
sI11574
I2
sI11575
I1
sI11576
I2
sI11577
I2
sI11578
I0
sI11579
I0
sI11580
I2
sI11581
I4
sI11582
I4
sI11583
I1
sI11584
I0
sI11585
I4
sI11586
I4
sI11587
I0
sI11588
I3
sI11589
I0
sI11590
I1
sI11591
I3
sI11592
I2
sI11593
I4
sI11594
I0
sI11595
I0
sI11596
I4
sI11597
I0
sI11598
I4
sI11599
I0
sI11600
I0
sI11601
I2
sI11602
I3
sI11603
I4
sI11604
I0
sI11605
I0
sI11606
I1
sI11607
I1
sI11608
I1
sI11609
I1
sI11610
I1
sI11611
I4
sI11612
I1
sI11613
I0
sI11614
I1
sI11615
I0
sI11616
I4
sI11617
I0
sI11618
I0
sI11619
I0
sI11620
I4
sI11621
I1
sI11622
I2
sI11623
I1
sI11624
I0
sI11625
I0
sI11626
I0
sI11627
I0
sI11628
I0
sI11629
I0
sI11630
I1
sI11631
I0
sI11632
I0
sI11633
I0
sI11634
I0
sI11635
I0
sI11636
I2
sI11637
I0
sI11638
I0
sI11639
I0
sI11640
I4
sI11641
I3
sI11642
I4
sI11643
I3
sI11644
I0
sI11645
I0
sI11646
I0
sI11647
I0
sI11648
I0
sI11649
I2
sI11650
I0
sI11651
I3
sI11652
I0
sI11653
I0
sI11654
I4
sI11655
I0
sI11656
I0
sI11657
I0
sI11658
I4
sI11659
I4
sI11660
I0
sI11661
I5
sI11662
I0
sI11663
I4
sI11664
I0
sI11665
I4
sI11666
I3
sI11667
I1
sI11668
I1
sI11669
I0
sI11670
I0
sI11671
I0
sI11672
I0
sI11673
I0
sI11674
I0
sI11675
I0
sI11676
I0
sI11677
I4
sI11678
I0
sI11679
I0
sI11680
I0
sI11681
I2
sI11682
I1
sI11683
I3
sI11684
I3
sI11685
I3
sI11686
I1
sI11687
I3
sI11688
I2
sI11689
I3
sI11690
I3
sI11691
I1
sI11692
I3
sI11693
I2
sI11694
I2
sI11695
I2
sI11696
I3
sI11697
I4
sI11698
I3
sI11699
I3
sI11700
I3
sI11701
I2
sI11702
I2
sI11703
I3
sI11704
I1
sI11705
I0
sI11706
I3
sI11707
I3
sI11708
I0
sI11709
I6
sI11710
I4
sI11711
I6
sI11712
I0
sI11713
I4
sI11714
I0
sI11715
I0
sI11716
I2
sI11717
I0
sI11718
I1
sI11719
I0
sI11720
I1
sI11721
I0
sI11722
I0
sI11723
I0
sI11724
I1
sI11725
I0
sI11726
I0
sI11727
I1
sI11728
I0
sI11729
I0
sI11730
I0
sI11731
I3
sI11732
I0
sI11733
I1
sI11734
I0
sI11735
I1
sI11736
I0
sI11737
I0
sI11738
I0
sI11739
I3
sI11740
I2
sI11741
I3
sI11742
I4
sI11743
I3
sI11744
I1
sI11745
I4
sI11746
I1
sI11747
I1
sI11748
I0
sI11749
I1
sI11750
I1
sI11751
I1
sI11752
I1
sI11753
I1
sI11754
I1
sI11755
I1
sI11756
I1
sI11757
I1
sI11758
I0
sI11759
I1
sI11760
I1
sI11761
I0
sI11762
I4
sI11763
I2
sI11764
I5
sI11765
I0
sI11766
I1
sI11767
I1
sI11768
I0
sI11769
I1
sI11770
I0
sI11771
I1
sI11772
I1
sI11773
I1
sI11774
I1
sI11775
I1
sI11776
I1
sI11777
I1
sI11778
I1
sI11779
I0
sI11780
I4
sI11781
I4
sI11782
I0
sI11783
I1
sI11784
I0
sI11785
I4
sI11786
I1
sI11787
I1
sI11788
I1
sI11789
I1
sI11790
I1
sI11791
I0
sI11792
I1
sI11793
I5
sI11794
I0
sI11795
I1
sI11796
I4
sI11797
I0
sI11798
I3
sI11799
I3
sI11800
I1
sI11801
I0
sI11802
I0
sI11803
I2
sI11804
I1
sI11805
I4
sI11806
I0
sI11807
I0
sI11808
I0
sI11809
I5
sI11810
I4
sI11811
I0
sI11812
I1
sI11813
I1
sI11814
I0
sI11815
I4
sI11816
I4
sI11817
I4
sI11818
I0
sI11819
I4
sI11820
I4
sI11821
I0
sI11822
I1
sI11823
I0
sI11824
I4
sI11825
I5
s.